(lp1
(dp2
S'res_discipline_id'
p3
I11824253
sS'total_num'
p4
I1812
sS'resource_id'
p5
V1620334
p6
sS'res_edugrade'
p7
VC
sS'user_info'
p8
(lp9
I-1
a(dp10
Vroletype
p11
V00
p12
sV_id
p13
ccopy_reg
_reconstructor
p14
(cbson.objectid
ObjectId
p15
c__builtin__
object
p16
NtRp17
S'Wt\xdb\xf1\xe5\xbe:\n\x96\x83\xc47'
p18
bsVid
p19
I13834
sVedutype
p20
VD
sa(dp21
Vroletype
p22
V00
p23
sV_id
p24
g14
(g15
g16
NtRp25
S'Wt\xdc\x05\xe5\xbe:\n\x96\x84t;'
p26
bsVid
p27
I81159
sVedutype
p28
VB
sa(dp29
Vroletype
p30
V00
p31
sV_id
p32
g14
(g15
g16
NtRp33
S'Wt\xdc\x05\xe5\xbe:\n\x96\x84t\xaa'
p34
bsVid
p35
I81270
sVedutype
p36
VB
sa(dp37
Vroletype
p38
V00
p39
sV_id
p40
g14
(g15
g16
NtRp41
S'Wt\xdc\x05\xe5\xbe:\n\x96\x84vj'
p42
bsVid
p43
I81718
sVedutype
p44
VB
sa(dp45
Vroletype
p46
V00
p47
sV_id
p48
g14
(g15
g16
NtRp49
S'Wt\xdc\x05\xe5\xbe:\n\x96\x84w\xb7'
p50
bsVid
p51
I82051
sVedutype
p52
VC
sa(dp53
Vroletype
p54
V00
p55
sV_id
p56
g14
(g15
g16
NtRp57
S'Wt\xdc\x05\xe5\xbe:\n\x96\x84x['
p58
bsVid
p59
I82215
sVedutype
p60
VC
sa(dp61
Vroletype
p62
V00
p63
sV_id
p64
g14
(g15
g16
NtRp65
S'Wt\xdc\x05\xe5\xbe:\n\x96\x84{\x02'
p66
bsVid
p67
I82894
sVedutype
p68
VB
sa(dp69
Vroletype
p70
V00
p71
sV_id
p72
g14
(g15
g16
NtRp73
S'Wt\xdc\x06\xe5\xbe:\n\x96\x84{\xdb'
p74
bsVid
p75
I83113
sVedutype
p76
VB
sa(dp77
Vroletype
p78
V03
p79
sV_id
p80
g14
(g15
g16
NtRp81
S'Wt\xdc\x06\xe5\xbe:\n\x96\x84\x80\xfd'
p82
bsVid
p83
I84427
sVedutype
p84
VC
sa(dp85
Vroletype
p86
V00
p87
sV_id
p88
g14
(g15
g16
NtRp89
S'Wt\xdc\x06\xe5\xbe:\n\x96\x84\x812'
p90
bsVid
p91
I84480
sVedutype
p92
VB
sa(dp93
Vroletype
p94
V00
p95
sV_id
p96
g14
(g15
g16
NtRp97
S'Wt\xdc\x06\xe5\xbe:\n\x96\x84\x81\xa8'
p98
bsVid
p99
I84598
sVedutype
p100
VB
sa(dp101
Vroletype
p102
V00
p103
sV_id
p104
g14
(g15
g16
NtRp105
S'Wt\xdc\x06\xe5\xbe:\n\x96\x84\x82\x96'
p106
bsVid
p107
I84836
sVedutype
p108
VB
sa(dp109
Vroletype
p110
V00
p111
sV_id
p112
g14
(g15
g16
NtRp113
S'Wt\xdc\x06\xe5\xbe:\n\x96\x84\x82\xed'
p114
bsVid
p115
I84923
sVedutype
p116
VC
sa(dp117
Vroletype
p118
V03
p119
sV_id
p120
g14
(g15
g16
NtRp121
S'Wt\xdc\x07\xe5\xbe:\n\x96\x84\x86\xfc'
p122
bsVid
p123
I85963
sVedutype
p124
VC
sa(dp125
Vroletype
p126
V00
p127
sV_id
p128
g14
(g15
g16
NtRp129
S'Wt\xdc\x07\xe5\xbe:\n\x96\x84\x88\xe4'
p130
bsVid
p131
I86451
sVedutype
p132
VB
sa(dp133
Vroletype
p134
V00
p135
sV_id
p136
g14
(g15
g16
NtRp137
S'Wt\xdc\x07\xe5\xbe:\n\x96\x84\x89K'
p138
bsVid
p139
I86554
sVedutype
p140
VB
sa(dp141
Vroletype
p142
V03
p143
sV_id
p144
g14
(g15
g16
NtRp145
S'Wt\xdc\x07\xe5\xbe:\n\x96\x84\x89p'
p146
bsVid
p147
I86591
sVedutype
p148
VF
sa(dp149
Vroletype
p150
V00
p151
sV_id
p152
g14
(g15
g16
NtRp153
S'Wt\xdc\x07\xe5\xbe:\n\x96\x84\x8b\xae'
p154
bsVid
p155
I87165
sVedutype
p156
VC
sa(dp157
Vroletype
p158
V03
p159
sV_id
p160
g14
(g15
g16
NtRp161
S'Wt\xdc\x08\xe5\xbe:\n\x96\x84\x8c\xeb'
p162
bsVid
p163
I87482
sVedutype
p164
VC
sa(dp165
Vroletype
p166
V00
p167
sV_id
p168
g14
(g15
g16
NtRp169
S'Wt\xdc\x08\xe5\xbe:\n\x96\x84\x8d\xcc'
p170
bsVid
p171
I87707
sVedutype
p172
VC
sa(dp173
Vroletype
p174
V00
p175
sV_id
p176
g14
(g15
g16
NtRp177
S'Wt\xdc\x08\xe5\xbe:\n\x96\x84\x91b'
p178
bsVid
p179
I88625
sVedutype
p180
VB
sa(dp181
Vroletype
p182
V00
p183
sV_id
p184
g14
(g15
g16
NtRp185
S'Wt\xdc\t\xe5\xbe:\n\x96\x84\x94\x03'
p186
bsVid
p187
I89298
sVedutype
p188
VC
sa(dp189
Vroletype
p190
V00
p191
sV_id
p192
g14
(g15
g16
NtRp193
S'Wt\xdc\t\xe5\xbe:\n\x96\x84\x94\t'
p194
bsVid
p195
I89304
sVedutype
p196
VB
sa(dp197
Vroletype
p198
V00
p199
sV_id
p200
g14
(g15
g16
NtRp201
S'Wt\xdc\t\xe5\xbe:\n\x96\x84\x94g'
p202
bsVid
p203
I89398
sVedutype
p204
VC
sa(dp205
Vroletype
p206
V00
p207
sV_id
p208
g14
(g15
g16
NtRp209
S'Wt\xdc\t\xe5\xbe:\n\x96\x84\x94\xc1'
p210
bsVid
p211
I89488
sVedutype
p212
VB
sa(dp213
Vroletype
p214
V03
p215
sV_id
p216
g14
(g15
g16
NtRp217
S'Wt\xdc\t\xe5\xbe:\n\x96\x84\x96\x8b'
p218
bsVid
p219
I89946
sVedutype
p220
VC
sa(dp221
Vroletype
p222
V00
p223
sV_id
p224
g14
(g15
g16
NtRp225
S'Wt\xdc\t\xe5\xbe:\n\x96\x84\x97F'
p226
bsVid
p227
I90133
sVedutype
p228
VB
sa(dp229
Vroletype
p230
V00
p231
sV_id
p232
g14
(g15
g16
NtRp233
S'Wt\xdc\t\xe5\xbe:\n\x96\x84\x97\xaf'
p234
bsVid
p235
I90238
sVedutype
p236
VC
sa(dp237
Vroletype
p238
V00
p239
sV_id
p240
g14
(g15
g16
NtRp241
S'Wt\xdc\t\xe5\xbe:\n\x96\x84\x98\xae'
p242
bsVid
p243
I90493
sVedutype
p244
VB
sa(dp245
Vroletype
p246
V00
p247
sV_id
p248
g14
(g15
g16
NtRp249
S'Wt\xdc\t\xe5\xbe:\n\x96\x84\x9a\xe7'
p250
bsVid
p251
I91062
sVedutype
p252
VC
sasS'user_edutype'
p253
ccollections
Counter
p254
((dp255
VC
I13
sVB
I15
sS'-1'
p256
I1761
sVD
I1
sVF
I1
stRp257
sa(dp258
g3
I11824255
sg4
I1082
sg5
V1623227
p259
sg7
VB
sg8
(lp260
I-1
a(dp261
Vroletype
p262
V00
p263
sV_id
p264
g14
(g15
g16
NtRp265
S'Wt\xdb\xfb\xe5\xbe:\n\x96\x84%\x13'
p266
bsVid
p267
I60847
sVedutype
p268
VB
sa(dp269
Vroletype
p270
V00
p271
sV_id
p272
g14
(g15
g16
NtRp273
S'Wt\xdc\x00\xe5\xbe:\n\x96\x84I\xcb'
p274
bsVid
p275
I70278
sVedutype
p276
VB
sa(dp277
Vroletype
p278
V00
p279
sV_id
p280
g14
(g15
g16
NtRp281
S'Wt\xdc\x02\xe5\xbe:\n\x96\x84Z9'
p282
bsVid
p283
I74497
sVedutype
p284
VB
sa(dp285
Vroletype
p286
V00
p287
sV_id
p288
g14
(g15
g16
NtRp289
S'Wt\xdc\x05\xe5\xbe:\n\x96\x84r\xde'
p290
bsVid
p291
I80809
sVedutype
p292
VB
sa(dp293
Vroletype
p294
V00
p295
sV_id
p296
g14
(g15
g16
NtRp297
S'Wt\xdc\x05\xe5\xbe:\n\x96\x84t\x88'
p298
bsVid
p299
I81236
sVedutype
p300
VB
sa(dp301
Vroletype
p302
V00
p303
sV_id
p304
g14
(g15
g16
NtRp305
S'Wt\xdc\x05\xe5\xbe:\n\x96\x84t\xa6'
p306
bsVid
p307
I81266
sVedutype
p308
VB
sa(dp309
Vroletype
p310
V00
p311
sV_id
p312
g14
(g15
g16
NtRp313
S'Wt\xdc\x05\xe5\xbe:\n\x96\x84x]'
p314
bsVid
p315
I82217
sVedutype
p316
VB
sag69
a(dp317
Vroletype
p318
V00
p319
sV_id
p320
g14
(g15
g16
NtRp321
S'Wt\xdc\x06\xe5\xbe:\n\x96\x84\x83\x9b'
p322
bsVid
p323
I85097
sVedutype
p324
VB
sa(dp325
Vroletype
p326
V00
p327
sV_id
p328
g14
(g15
g16
NtRp329
S'Wt\xdc\x07\xe5\xbe:\n\x96\x84\x86\xc4'
p330
bsVid
p331
I85907
sVedutype
p332
VB
sa(dp333
Vroletype
p334
V00
p335
sV_id
p336
g14
(g15
g16
NtRp337
S'Wt\xdc\x07\xe5\xbe:\n\x96\x84\x87s'
p338
bsVid
p339
I86082
sVedutype
p340
VB
sa(dp341
Vroletype
p342
V00
p343
sV_id
p344
g14
(g15
g16
NtRp345
S'Wt\xdc\x07\xe5\xbe:\n\x96\x84\x88z'
p346
bsVid
p347
I86345
sVedutype
p348
VB
sag141
a(dp349
Vroletype
p350
V00
p351
sV_id
p352
g14
(g15
g16
NtRp353
S'Wt\xdc\x08\xe5\xbe:\n\x96\x84\x8e='
p354
bsVid
p355
I87820
sVedutype
p356
VB
sa(dp357
Vroletype
p358
V00
p359
sV_id
p360
g14
(g15
g16
NtRp361
S'Wt\xdc\t\xe5\xbe:\n\x96\x84\x97G'
p362
bsVid
p363
I90134
sVedutype
p364
VB
sa(dp365
Vroletype
p366
V00
p367
sV_id
p368
g14
(g15
g16
NtRp369
S'Wt\xdc\n\xe5\xbe:\n\x96\x84\x9d}'
p370
bsVid
p371
I91724
sVedutype
p372
VB
sasg253
g254
((dp373
VB
I15
sg256
I1043
sVF
I1
stRp374
sa(dp375
g3
I11824255
sg4
I1540
sg5
V1624678
p376
sg7
VB
sg8
(lp377
I-1
ag10
a(dp378
Vroletype
p379
V00
p380
sV_id
p381
g14
(g15
g16
NtRp382
S'Wt\xdc\x02\xe5\xbe:\n\x96\x84Z\xf5'
p383
bsVid
p384
I74687
sVedutype
p385
VB
sa(dp386
Vroletype
p387
V00
p388
sV_id
p389
g14
(g15
g16
NtRp390
S'Wt\xdc\x06\xe5\xbe:\n\x96\x84\x81\x07'
p391
bsVid
p392
I84437
sVedutype
p393
VB
sag325
ag341
a(dp394
Vroletype
p395
V00
p396
sV_id
p397
g14
(g15
g16
NtRp398
S'Wt\xdc\t\xe5\xbe:\n\x96\x84\x94R'
p399
bsVid
p400
I89377
sVedutype
p401
VB
sag365
asg253
g254
((dp402
VB
I6
sg256
I1523
sVD
I1
stRp403
sa(dp404
g3
I11824255
sg4
I1517
sg5
V1624679
p405
sg7
VB
sg8
(lp406
I-1
ag10
a(dp407
Vroletype
p408
V05
p409
sV_id
p410
g14
(g15
g16
NtRp411
S'Wt\xdc\x05\xe5\xbe:\n\x96\x84x\x10'
p412
bsVid
p413
I82140
sVedutype
p414
VZ
sa(dp415
Vroletype
p416
V00
p417
sV_id
p418
g14
(g15
g16
NtRp419
S'Wt\xdc\x06\xe5\xbe:\n\x96\x84\x81|'
p420
bsVid
p421
I84554
sVedutype
p422
VB
sa(dp423
Vroletype
p424
V03
p425
sV_id
p426
g14
(g15
g16
NtRp427
S'Wt\xdc\x08\xe5\xbe:\n\x96\x84\x8c\xc6'
p428
bsVid
p429
I87445
sVedutype
p430
VF
sa(dp431
Vroletype
p432
V00
p433
sV_id
p434
g14
(g15
g16
NtRp435
S'Wt\xdc\t\xe5\xbe:\n\x96\x84\x93\xd7'
p436
bsVid
p437
I89254
sVedutype
p438
VB
sa(dp439
Vroletype
p440
V00
p441
sV_id
p442
g14
(g15
g16
NtRp443
S"Wt\xdc\t\xe5\xbe:\n\x96\x84\x96'"
p444
bsVid
p445
I89846
sVedutype
p446
VB
sasg253
g254
((dp447
VZ
I1
sVB
I3
sg256
I1505
sVD
I1
sVF
I1
stRp448
sa(dp449
g3
I11824254
sg4
I1456
sg5
V1636038
p450
sg7
VB
sg8
(lp451
I-1
a(dp452
Vroletype
p453
V00
p454
sV_id
p455
g14
(g15
g16
NtRp456
S'Wt\xdc\x02\xe5\xbe:\n\x96\x84X\x86'
p457
bsVid
p458
I74062
sVedutype
p459
VB
sa(dp460
Vroletype
p461
V00
p462
sV_id
p463
g14
(g15
g16
NtRp464
S'Wt\xdc\x04\xe5\xbe:\n\x96\x84q\xe8'
p465
bsVid
p466
I80563
sVedutype
p467
VD
sa(dp468
Vroletype
p469
V00
p470
sV_id
p471
g14
(g15
g16
NtRp472
S'Wt\xdc\x05\xe5\xbe:\n\x96\x84t\xc1'
p473
bsVid
p474
I81293
sVedutype
p475
VB
sa(dp476
Vroletype
p477
V04
p478
sV_id
p479
g14
(g15
g16
NtRp480
S'Wt\xdc\x05\xe5\xbe:\n\x96\x84x\x0f'
p481
bsVid
p482
I82139
sVedutype
p483
VB
sa(dp484
Vroletype
p485
V00
p486
sV_id
p487
g14
(g15
g16
NtRp488
S'Wt\xdc\x05\xe5\xbe:\n\x96\x84y\x80'
p489
bsVid
p490
I82508
sVedutype
p491
VB
sa(dp492
Vroletype
p493
V00
p494
sV_id
p495
g14
(g15
g16
NtRp496
S'Wt\xdc\x07\xe5\xbe:\n\x96\x84\x85\xfe'
p497
bsVid
p498
I85709
sVedutype
p499
VB
sa(dp500
Vroletype
p501
V00
p502
sV_id
p503
g14
(g15
g16
NtRp504
S'Wt\xdc\x07\xe5\xbe:\n\x96\x84\x89-'
p505
bsVid
p506
I86524
sVedutype
p507
VB
sa(dp508
Vroletype
p509
V03
p510
sV_id
p511
g14
(g15
g16
NtRp512
S'Wt\xdc\x07\xe5\xbe:\n\x96\x84\x89n'
p513
bsVid
p514
I86589
sVedutype
p515
VF
sa(dp516
Vroletype
p517
V00
p518
sV_id
p519
g14
(g15
g16
NtRp520
S'Wt\xdc\x07\xe5\xbe:\n\x96\x84\x8a\xb6'
p521
bsVid
p522
I86917
sVedutype
p523
VB
sasg253
g254
((dp524
VB
I7
sg256
I1443
sVD
I1
sVF
I1
stRp525
sa(dp526
g3
I-1
sg4
I1224
sg5
V1662063
p527
sg7
VB
sg8
(lp528
I-1
a(dp529
Vroletype
p530
V00
p531
sV_id
p532
g14
(g15
g16
NtRp533
S'Wt\xdc\x02\xe5\xbe:\n\x96\x84X\x88'
p534
bsVid
p535
I74064
sVedutype
p536
VB
sa(dp537
Vroletype
p538
V00
p539
sV_id
p540
g14
(g15
g16
NtRp541
S'Wt\xdc\x02\xe5\xbe:\n\x96\x84[\x88'
p542
bsVid
p543
I74834
sVedutype
p544
VB
sa(dp545
Vroletype
p546
V00
p547
sV_id
p548
g14
(g15
g16
NtRp549
S'Wt\xdc\x05\xe5\xbe:\n\x96\x84t\xdd'
p550
bsVid
p551
I81321
sVedutype
p552
VB
sa(dp553
Vroletype
p554
V00
p555
sV_id
p556
g14
(g15
g16
NtRp557
S'Wt\xdc\x05\xe5\xbe:\n\x96\x84u\x00'
p558
bsVid
p559
I81356
sVedutype
p560
VB
sa(dp561
Vroletype
p562
V00
p563
sV_id
p564
g14
(g15
g16
NtRp565
S'Wt\xdc\x05\xe5\xbe:\n\x96\x84wc'
p566
bsVid
p567
I81967
sVedutype
p568
VB
sa(dp569
Vroletype
p570
V00
p571
sV_id
p572
g14
(g15
g16
NtRp573
S'Wt\xdc\x06\xe5\xbe:\n\x96\x84|\xb5'
p574
bsVid
p575
I83331
sVedutype
p576
VB
sa(dp577
Vroletype
p578
V00
p579
sV_id
p580
g14
(g15
g16
NtRp581
S'Wt\xdc\x06\xe5\xbe:\n\x96\x84\x81\xa6'
p582
bsVid
p583
I84596
sVedutype
p584
VB
sa(dp585
Vroletype
p586
V00
p587
sV_id
p588
g14
(g15
g16
NtRp589
S'Wt\xdc\x06\xe5\xbe:\n\x96\x84\x81\xcb'
p590
bsVid
p591
I84633
sVedutype
p592
VB
sag101
a(dp593
Vroletype
p594
V00
p595
sV_id
p596
g14
(g15
g16
NtRp597
S'Wt\xdc\x06\xe5\xbe:\n\x96\x84\x83\x9a'
p598
bsVid
p599
I85096
sVedutype
p600
VB
sag317
a(dp601
Vroletype
p602
V00
p603
sV_id
p604
g14
(g15
g16
NtRp605
S'Wt\xdc\x07\xe5\xbe:\n\x96\x84\x86\xb7'
p606
bsVid
p607
I85894
sVedutype
p608
VB
sa(dp609
Vroletype
p610
V00
p611
sV_id
p612
g14
(g15
g16
NtRp613
S'Wt\xdc\x07\xe5\xbe:\n\x96\x84\x86\xc2'
p614
bsVid
p615
I85905
sVedutype
p616
VB
sasg253
g254
((dp617
VB
I13
sg256
I1187
stRp618
sa(dp619
g3
I11824255
sg4
I1129
sg5
V1666681
p620
sg7
VB
sg8
(lp621
I-1
ag269
a(dp622
Vroletype
p623
V00
p624
sV_id
p625
g14
(g15
g16
NtRp626
S"Wt\xdc\x02\xe5\xbe:\n\x96\x84X'"
p627
bsVid
p628
I73967
sVedutype
p629
VB
sa(dp630
Vroletype
p631
V00
p632
sV_id
p633
g14
(g15
g16
NtRp634
S'Wt\xdc\x05\xe5\xbe:\n\x96\x84s\t'
p635
bsVid
p636
I80852
sVedutype
p637
VB
sa(dp638
Vroletype
p639
V00
p640
sV_id
p641
g14
(g15
g16
NtRp642
S'Wt\xdc\x05\xe5\xbe:\n\x96\x84s\x17'
p643
bsVid
p644
I80866
sVedutype
p645
VB
sa(dp646
Vroletype
p647
V00
p648
sV_id
p649
g14
(g15
g16
NtRp650
S'Wt\xdc\x05\xe5\xbe:\n\x96\x84s\xe3'
p651
bsVid
p652
I81071
sVedutype
p653
VB
sa(dp654
Vroletype
p655
V00
p656
sV_id
p657
g14
(g15
g16
NtRp658
S'Wt\xdc\x05\xe5\xbe:\n\x96\x84x\x1e'
p659
bsVid
p660
I82154
sVedutype
p661
VB
sa(dp662
Vroletype
p663
V00
p664
sV_id
p665
g14
(g15
g16
NtRp666
S'Wt\xdc\x05\xe5\xbe:\n\x96\x84yJ'
p667
bsVid
p668
I82454
sVedutype
p669
VB
sa(dp670
Vroletype
p671
V00
p672
sV_id
p673
g14
(g15
g16
NtRp674
S'Wt\xdc\x05\xe5\xbe:\n\x96\x84z\x91'
p675
bsVid
p676
I82781
sVedutype
p677
VB
sa(dp678
Vroletype
p679
V00
p680
sV_id
p681
g14
(g15
g16
NtRp682
S'Wt\xdc\x05\xe5\xbe:\n\x96\x84{7'
p683
bsVid
p684
I82947
sVedutype
p685
VB
sa(dp686
Vroletype
p687
V00
p688
sV_id
p689
g14
(g15
g16
NtRp690
S'Wt\xdc\x06\xe5\xbe:\n\x96\x84{\xe7'
p691
bsVid
p692
I83125
sVedutype
p693
VB
sa(dp694
Vroletype
p695
V00
p696
sV_id
p697
g14
(g15
g16
NtRp698
S'Wt\xdc\x06\xe5\xbe:\n\x96\x84\x81\x0c'
p699
bsVid
p700
I84442
sVedutype
p701
VB
sa(dp702
Vroletype
p703
V00
p704
sV_id
p705
g14
(g15
g16
NtRp706
S'Wt\xdc\x06\xe5\xbe:\n\x96\x84\x82\x07'
p707
bsVid
p708
I84693
sVedutype
p709
VB
sa(dp710
Vroletype
p711
V00
p712
sV_id
p713
g14
(g15
g16
NtRp714
S'Wt\xdc\x06\xe5\xbe:\n\x96\x84\x83\xe1'
p715
bsVid
p716
I85167
sVedutype
p717
VB
sa(dp718
Vroletype
p719
V00
p720
sV_id
p721
g14
(g15
g16
NtRp722
S'Wt\xdc\x07\xe5\xbe:\n\x96\x84\x84\xf1'
p723
bsVid
p724
I85439
sVedutype
p725
VB
sag341
a(dp726
Vroletype
p727
V00
p728
sV_id
p729
g14
(g15
g16
NtRp730
S'Wt\xdc\x07\xe5\xbe:\n\x96\x84\x88\x94'
p731
bsVid
p732
I86371
sVedutype
p733
VB
sag133
a(dp734
Vroletype
p735
V00
p736
sV_id
p737
g14
(g15
g16
NtRp738
S'Wt\xdc\x07\xe5\xbe:\n\x96\x84\x8bM'
p739
bsVid
p740
I87068
sVedutype
p741
VB
sa(dp742
Vroletype
p743
V00
p744
sV_id
p745
g14
(g15
g16
NtRp746
S'Wt\xdc\x08\xe5\xbe:\n\x96\x84\x8e*'
p747
bsVid
p748
I87801
sVedutype
p749
VB
sa(dp750
Vroletype
p751
V00
p752
sV_id
p753
g14
(g15
g16
NtRp754
S'Wt\xdc\x08\xe5\xbe:\n\x96\x84\x8fn'
p755
bsVid
p756
I88125
sVedutype
p757
VB
sa(dp758
Vroletype
p759
V00
p760
sV_id
p761
g14
(g15
g16
NtRp762
S'Wt\xdc\x08\xe5\xbe:\n\x96\x84\x90\xcd'
p763
bsVid
p764
I88476
sVedutype
p765
VB
sa(dp766
Vroletype
p767
V00
p768
sV_id
p769
g14
(g15
g16
NtRp770
S'Wt\xdc\x08\xe5\xbe:\n\x96\x84\x91c'
p771
bsVid
p772
I88626
sVedutype
p773
VB
sa(dp774
Vroletype
p775
V00
p776
sV_id
p777
g14
(g15
g16
NtRp778
S'Wt\xdc\x08\xe5\xbe:\n\x96\x84\x91\x7f'
p779
bsVid
p780
I88654
sVedutype
p781
VB
sa(dp782
Vroletype
p783
V00
p784
sV_id
p785
g14
(g15
g16
NtRp786
S'Wt\xdc\x08\xe5\xbe:\n\x96\x84\x91\x90'
p787
bsVid
p788
I88671
sVedutype
p789
VB
sa(dp790
Vroletype
p791
V00
p792
sV_id
p793
g14
(g15
g16
NtRp794
S'Wt\xdc\x08\xe5\xbe:\n\x96\x84\x92"'
p795
bsVid
p796
I88817
sVedutype
p797
VB
sa(dp798
Vroletype
p799
V00
p800
sV_id
p801
g14
(g15
g16
NtRp802
S'Wt\xdc\t\xe5\xbe:\n\x96\x84\x93h'
p803
bsVid
p804
I89143
sVedutype
p805
VB
sa(dp806
Vroletype
p807
V00
p808
sV_id
p809
g14
(g15
g16
NtRp810
S'Wt\xdc\t\xe5\xbe:\n\x96\x84\x95u'
p811
bsVid
p812
I89668
sVedutype
p813
VB
sa(dp814
Vroletype
p815
V00
p816
sV_id
p817
g14
(g15
g16
NtRp818
S'Wt\xdc\t\xe5\xbe:\n\x96\x84\x95{'
p819
bsVid
p820
I89674
sVedutype
p821
VB
sa(dp822
Vroletype
p823
V00
p824
sV_id
p825
g14
(g15
g16
NtRp826
S'Wt\xdc\t\xe5\xbe:\n\x96\x84\x96T'
p827
bsVid
p828
I89891
sVedutype
p829
VB
sa(dp830
Vroletype
p831
V00
p832
sV_id
p833
g14
(g15
g16
NtRp834
S'Wt\xdc\t\xe5\xbe:\n\x96\x84\x96\xfb'
p835
bsVid
p836
I90058
sVedutype
p837
VB
sa(dp838
Vroletype
p839
V00
p840
sV_id
p841
g14
(g15
g16
NtRp842
S'Wt\xdc\t\xe5\xbe:\n\x96\x84\x99w'
p843
bsVid
p844
I90694
sVedutype
p845
VB
sa(dp846
Vroletype
p847
V00
p848
sV_id
p849
g14
(g15
g16
NtRp850
S'Wt\xdc\t\xe5\xbe:\n\x96\x84\x9a\x0e'
p851
bsVid
p852
I90845
sVedutype
p853
VB
sa(dp854
Vroletype
p855
V00
p856
sV_id
p857
g14
(g15
g16
NtRp858
S'Wt\xdc\t\xe5\xbe:\n\x96\x84\x9a\x12'
p859
bsVid
p860
I90849
sVedutype
p861
VB
sa(dp862
Vroletype
p863
V00
p864
sV_id
p865
g14
(g15
g16
NtRp866
S'Wt\xdc\t\xe5\xbe:\n\x96\x84\x9a\x1c'
p867
bsVid
p868
I90859
sVedutype
p869
VB
sa(dp870
Vroletype
p871
V00
p872
sV_id
p873
g14
(g15
g16
NtRp874
S'Wt\xdc\t\xe5\xbe:\n\x96\x84\x9a('
p875
bsVid
p876
I90871
sVedutype
p877
VB
sa(dp878
Vroletype
p879
V00
p880
sV_id
p881
g14
(g15
g16
NtRp882
S'Wt\xdc\t\xe5\xbe:\n\x96\x84\x9a\x93'
p883
bsVid
p884
I90978
sVedutype
p885
VB
sa(dp886
Vroletype
p887
V00
p888
sV_id
p889
g14
(g15
g16
NtRp890
S'Wt\xdc\t\xe5\xbe:\n\x96\x84\x9a\x97'
p891
bsVid
p892
I90982
sVedutype
p893
VB
sa(dp894
Vroletype
p895
V00
p896
sV_id
p897
g14
(g15
g16
NtRp898
S'Wt\xdc\t\xe5\xbe:\n\x96\x84\x9a\xe2'
p899
bsVid
p900
I91057
sVedutype
p901
VB
sa(dp902
Vroletype
p903
V00
p904
sV_id
p905
g14
(g15
g16
NtRp906
S'Wt\xdc\n\xe5\xbe:\n\x96\x84\x9b\xc9'
p907
bsVid
p908
I91288
sVedutype
p909
VB
sa(dp910
Vroletype
p911
V00
p912
sV_id
p913
g14
(g15
g16
NtRp914
S'Wt\xdc\n\xe5\xbe:\n\x96\x84\x9d\xad'
p915
bsVid
p916
I91772
sVedutype
p917
VB
sasg253
g254
((dp918
VB
I40
sg256
I1063
stRp919
sa(dp920
g3
I-1
sg4
I1216
sg5
V199073
p921
sg7
VB
sg8
(lp922
I-1
a(dp923
Vroletype
p924
V00
p925
sV_id
p926
g14
(g15
g16
NtRp927
S'Wt\xdb\xff\xe5\xbe:\n\x96\x84=\xd6'
p928
bsVid
p929
I67203
sVedutype
p930
VD
sa(dp931
Vroletype
p932
V04
p933
sV_id
p934
g14
(g15
g16
NtRp935
S'Wt\xdc\x02\xe5\xbe:\n\x96\x84W6'
p936
bsVid
p937
I73725
sVedutype
p938
VZ
sa(dp939
Vroletype
p940
V04
p941
sV_id
p942
g14
(g15
g16
NtRp943
S'Wt\xdc\x02\xe5\xbe:\n\x96\x84W\xfa'
p944
bsVid
p945
I73921
sVedutype
p946
V
sa(dp947
Vroletype
p948
V12
p949
sV_id
p950
g14
(g15
g16
NtRp951
S'Wt\xdc\x02\xe5\xbe:\n\x96\x84X*'
p952
bsVid
p953
I73970
sVedutype
p954
VZ
sa(dp955
Vroletype
p956
V00
p957
sV_id
p958
g14
(g15
g16
NtRp959
S'Wt\xdc\x02\xe5\xbe:\n\x96\x84X\x80'
p960
bsVid
p961
I74056
sVedutype
p962
VB
sa(dp963
Vroletype
p964
V00
p965
sV_id
p966
g14
(g15
g16
NtRp967
S'Wt\xdc\x02\xe5\xbe:\n\x96\x84X\x8d'
p968
bsVid
p969
I74069
sVedutype
p970
VB
sa(dp971
Vroletype
p972
V00
p973
sV_id
p974
g14
(g15
g16
NtRp975
S'Wt\xdc\x02\xe5\xbe:\n\x96\x84X\xaf'
p976
bsVid
p977
I74103
sVedutype
p978
VB
sa(dp979
Vroletype
p980
V00
p981
sV_id
p982
g14
(g15
g16
NtRp983
S'Wt\xdc\x02\xe5\xbe:\n\x96\x84Y@'
p984
bsVid
p985
I74248
sVedutype
p986
VB
sa(dp987
Vroletype
p988
V00
p989
sV_id
p990
g14
(g15
g16
NtRp991
S'Wt\xdc\x02\xe5\xbe:\n\x96\x84Yl'
p992
bsVid
p993
I74292
sVedutype
p994
VB
sa(dp995
Vroletype
p996
V00
p997
sV_id
p998
g14
(g15
g16
NtRp999
S'Wt\xdc\x02\xe5\xbe:\n\x96\x84Y\xfd'
p1000
bsVid
p1001
I74437
sVedutype
p1002
VC
sa(dp1003
Vroletype
p1004
V00
p1005
sV_id
p1006
g14
(g15
g16
NtRp1007
S'Wt\xdc\x02\xe5\xbe:\n\x96\x84Z\xbc'
p1008
bsVid
p1009
I74629
sVedutype
p1010
VB
sa(dp1011
Vroletype
p1012
V00
p1013
sV_id
p1014
g14
(g15
g16
NtRp1015
S'Wt\xdc\x02\xe5\xbe:\n\x96\x84[>'
p1016
bsVid
p1017
I74760
sVedutype
p1018
VB
sa(dp1019
Vroletype
p1020
V00
p1021
sV_id
p1022
g14
(g15
g16
NtRp1023
S'Wt\xdc\x02\xe5\xbe:\n\x96\x84[q'
p1024
bsVid
p1025
I74811
sVedutype
p1026
VB
sa(dp1027
Vroletype
p1028
V00
p1029
sV_id
p1030
g14
(g15
g16
NtRp1031
S'Wt\xdc\x02\xe5\xbe:\n\x96\x84[\x8d'
p1032
bsVid
p1033
I74839
sVedutype
p1034
VB
sa(dp1035
Vroletype
p1036
V00
p1037
sV_id
p1038
g14
(g15
g16
NtRp1039
S'Wt\xdc\x02\xe5\xbe:\n\x96\x84[\xae'
p1040
bsVid
p1041
I74872
sVedutype
p1042
VB
sa(dp1043
Vroletype
p1044
V00
p1045
sV_id
p1046
g14
(g15
g16
NtRp1047
S'Wt\xdc\x02\xe5\xbe:\n\x96\x84[\xb9'
p1048
bsVid
p1049
I74883
sVedutype
p1050
VB
sa(dp1051
Vroletype
p1052
V00
p1053
sV_id
p1054
g14
(g15
g16
NtRp1055
S'Wt\xdc\x02\xe5\xbe:\n\x96\x84[\xdc'
p1056
bsVid
p1057
I74918
sVedutype
p1058
VC
sa(dp1059
Vroletype
p1060
V00
p1061
sV_id
p1062
g14
(g15
g16
NtRp1063
S'Wt\xdc\x02\xe5\xbe:\n\x96\x84\\\x0b'
p1064
bsVid
p1065
I74965
sVedutype
p1066
VB
sa(dp1067
Vroletype
p1068
V03
p1069
sV_id
p1070
g14
(g15
g16
NtRp1071
S'Wt\xdc\x02\xe5\xbe:\n\x96\x84\\|'
p1072
bsVid
p1073
I75079
sVedutype
p1074
VF
sa(dp1075
Vroletype
p1076
V00
p1077
sV_id
p1078
g14
(g15
g16
NtRp1079
S'Wt\xdc\x02\xe5\xbe:\n\x96\x84\\\xeb'
p1080
bsVid
p1081
I75190
sVedutype
p1082
VH
sa(dp1083
Vroletype
p1084
V00
p1085
sV_id
p1086
g14
(g15
g16
NtRp1087
S'Wt\xdc\x04\xe5\xbe:\n\x96\x84p\xcd'
p1088
bsVid
p1089
I80280
sVedutype
p1090
VB
sa(dp1091
Vroletype
p1092
V00
p1093
sV_id
p1094
g14
(g15
g16
NtRp1095
S'Wt\xdc\x04\xe5\xbe:\n\x96\x84p\xe2'
p1096
bsVid
p1097
I80301
sVedutype
p1098
VB
sa(dp1099
Vroletype
p1100
V00
p1101
sV_id
p1102
g14
(g15
g16
NtRp1103
S'Wt\xdc\x04\xe5\xbe:\n\x96\x84q\n'
p1104
bsVid
p1105
I80341
sVedutype
p1106
VB
sa(dp1107
Vroletype
p1108
V00
p1109
sV_id
p1110
g14
(g15
g16
NtRp1111
S'Wt\xdc\x04\xe5\xbe:\n\x96\x84q\xb6'
p1112
bsVid
p1113
I80513
sVedutype
p1114
VC
sa(dp1115
Vroletype
p1116
V00
p1117
sV_id
p1118
g14
(g15
g16
NtRp1119
S'Wt\xdc\x04\xe5\xbe:\n\x96\x84rt'
p1120
bsVid
p1121
I80703
sVedutype
p1122
VB
sa(dp1123
Vroletype
p1124
V00
p1125
sV_id
p1126
g14
(g15
g16
NtRp1127
S'Wt\xdc\x05\xe5\xbe:\n\x96\x84r\xf9'
p1128
bsVid
p1129
I80836
sVedutype
p1130
VB
sa(dp1131
Vroletype
p1132
V00
p1133
sV_id
p1134
g14
(g15
g16
NtRp1135
S'Wt\xdc\x05\xe5\xbe:\n\x96\x84s\xeb'
p1136
bsVid
p1137
I81079
sVedutype
p1138
VB
sa(dp1139
Vroletype
p1140
V00
p1141
sV_id
p1142
g14
(g15
g16
NtRp1143
S'Wt\xdc\x05\xe5\xbe:\n\x96\x84t\x8b'
p1144
bsVid
p1145
I81239
sVedutype
p1146
VB
sag29
a(dp1147
Vroletype
p1148
V00
p1149
sV_id
p1150
g14
(g15
g16
NtRp1151
S'Wt\xdc\x05\xe5\xbe:\n\x96\x84t\xfe'
p1152
bsVid
p1153
I81354
sVedutype
p1154
VB
sa(dp1155
Vroletype
p1156
V03
p1157
sV_id
p1158
g14
(g15
g16
NtRp1159
S'Wt\xdc\x05\xe5\xbe:\n\x96\x84vP'
p1160
bsVid
p1161
I81692
sVedutype
p1162
VZ
sa(dp1163
Vroletype
p1164
V00
p1165
sV_id
p1166
g14
(g15
g16
NtRp1167
S'Wt\xdc\x05\xe5\xbe:\n\x96\x84w#'
p1168
bsVid
p1169
I81903
sVedutype
p1170
VB
sa(dp1171
Vroletype
p1172
V04
p1173
sV_id
p1174
g14
(g15
g16
NtRp1175
S'Wt\xdc\x05\xe5\xbe:\n\x96\x84w\xcc'
p1176
bsVid
p1177
I82072
sVedutype
p1178
VF
sa(dp1179
Vroletype
p1180
V03
p1181
sV_id
p1182
g14
(g15
g16
NtRp1183
S'Wt\xdc\x05\xe5\xbe:\n\x96\x84x\n'
p1184
bsVid
p1185
I82134
sVedutype
p1186
VF
sa(dp1187
Vroletype
p1188
V00
p1189
sV_id
p1190
g14
(g15
g16
NtRp1191
S'Wt\xdc\x05\xe5\xbe:\n\x96\x84xe'
p1192
bsVid
p1193
I82225
sVedutype
p1194
VC
sa(dp1195
Vroletype
p1196
V00
p1197
sV_id
p1198
g14
(g15
g16
NtRp1199
S'Wt\xdc\x05\xe5\xbe:\n\x96\x84x{'
p1200
bsVid
p1201
I82247
sVedutype
p1202
VC
sa(dp1203
Vroletype
p1204
V00
p1205
sV_id
p1206
g14
(g15
g16
NtRp1207
S'Wt\xdc\x05\xe5\xbe:\n\x96\x84yd'
p1208
bsVid
p1209
I82480
sVedutype
p1210
VC
sa(dp1211
Vroletype
p1212
V00
p1213
sV_id
p1214
g14
(g15
g16
NtRp1215
S'Wt\xdc\x05\xe5\xbe:\n\x96\x84{l'
p1216
bsVid
p1217
I83000
sVedutype
p1218
VC
sa(dp1219
Vroletype
p1220
V00
p1221
sV_id
p1222
g14
(g15
g16
NtRp1223
S'Wt\xdc\x06\xe5\xbe:\n\x96\x84\x7f\xca'
p1224
bsVid
p1225
I84120
sVedutype
p1226
VB
sasg253
g254
((dp1227
VC
I7
sVB
I23
sg256
I1119
sVD
I1
sVF
I3
sS'H'
I2
sVZ
I3
stRp1228
sa(dp1229
g3
I-1
sg4
I2467
sg5
V512345
p1230
sg7
VB
sg8
(lp1231
I-1
ag10
ag261
a(dp1232
Vroletype
p1233
V00
p1234
sV_id
p1235
g14
(g15
g16
NtRp1236
S'Wt\xdb\xfe\xe5\xbe:\n\x96\x849\x0f'
p1237
bsVid
p1238
I65975
sVedutype
p1239
VB
sa(dp1240
Vroletype
p1241
V00
p1242
sV_id
p1243
g14
(g15
g16
NtRp1244
S'Wt\xdb\xff\xe5\xbe:\n\x96\x84=F'
p1245
bsVid
p1246
I67059
sVedutype
p1247
VB
sag923
ag269
a(dp1248
Vroletype
p1249
V00
p1250
sV_id
p1251
g14
(g15
g16
NtRp1252
S'Wt\xdc\x02\xe5\xbe:\n\x96\x84WY'
p1253
bsVid
p1254
I73760
sVedutype
p1255
VB
sa(dp1256
Vroletype
p1257
V00
p1258
sV_id
p1259
g14
(g15
g16
NtRp1260
S'Wt\xdc\x02\xe5\xbe:\n\x96\x84Wt'
p1261
bsVid
p1262
I73787
sVedutype
p1263
VB
sa(dp1264
Vroletype
p1265
V00
p1266
sV_id
p1267
g14
(g15
g16
NtRp1268
S'Wt\xdc\x02\xe5\xbe:\n\x96\x84W~'
p1269
bsVid
p1270
I73797
sVedutype
p1271
VB
sa(dp1272
Vroletype
p1273
V00
p1274
sV_id
p1275
g14
(g15
g16
NtRp1276
S'Wt\xdc\x02\xe5\xbe:\n\x96\x84W\x8d'
p1277
bsVid
p1278
I73812
sVedutype
p1279
VB
sa(dp1280
Vroletype
p1281
V00
p1282
sV_id
p1283
g14
(g15
g16
NtRp1284
S'Wt\xdc\x02\xe5\xbe:\n\x96\x84W\x94'
p1285
bsVid
p1286
I73819
sVedutype
p1287
VC
sa(dp1288
Vroletype
p1289
V00
p1290
sV_id
p1291
g14
(g15
g16
NtRp1292
S'Wt\xdc\x02\xe5\xbe:\n\x96\x84W\xb5'
p1293
bsVid
p1294
I73852
sVedutype
p1295
VE
sa(dp1296
Vroletype
p1297
V00
p1298
sV_id
p1299
g14
(g15
g16
NtRp1300
S'Wt\xdc\x02\xe5\xbe:\n\x96\x84W\xc8'
p1301
bsVid
p1302
I73871
sVedutype
p1303
VB
sa(dp1304
Vroletype
p1305
V02
p1306
sV_id
p1307
g14
(g15
g16
NtRp1308
S'Wt\xdc\x02\xe5\xbe:\n\x96\x84W\xd4'
p1309
bsVid
p1310
I73883
sVedutype
p1311
V
sa(dp1312
Vroletype
p1313
V04
p1314
sV_id
p1315
g14
(g15
g16
NtRp1316
S'Wt\xdc\x02\xe5\xbe:\n\x96\x84W\xd7'
p1317
bsVid
p1318
I73886
sVedutype
p1319
VZ
sa(dp1320
Vroletype
p1321
V00
p1322
sV_id
p1323
g14
(g15
g16
NtRp1324
S'Wt\xdc\x02\xe5\xbe:\n\x96\x84W\xf9'
p1325
bsVid
p1326
I73920
sVedutype
p1327
VB
sag939
a(dp1328
Vroletype
p1329
V00
p1330
sV_id
p1331
g14
(g15
g16
NtRp1332
S'Wt\xdc\x02\xe5\xbe:\n\x96\x84W\xff'
p1333
bsVid
p1334
I73926
sVedutype
p1335
VB
sa(dp1336
Vroletype
p1337
V00
p1338
sV_id
p1339
g14
(g15
g16
NtRp1340
S'Wt\xdc\x02\xe5\xbe:\n\x96\x84X&'
p1341
bsVid
p1342
I73966
sVedutype
p1343
VC
sag947
a(dp1344
Vroletype
p1345
V00
p1346
sV_id
p1347
g14
(g15
g16
NtRp1348
S'Wt\xdc\x02\xe5\xbe:\n\x96\x84Xg'
p1349
bsVid
p1350
I74031
sVedutype
p1351
VB
sa(dp1352
Vroletype
p1353
V00
p1354
sV_id
p1355
g14
(g15
g16
NtRp1356
S'Wt\xdc\x02\xe5\xbe:\n\x96\x84Xi'
p1357
bsVid
p1358
I74033
sVedutype
p1359
VB
sag955
a(dp1360
Vroletype
p1361
V00
p1362
sV_id
p1363
g14
(g15
g16
NtRp1364
S'Wt\xdc\x02\xe5\xbe:\n\x96\x84X\x8a'
p1365
bsVid
p1366
I74066
sVedutype
p1367
VB
sa(dp1368
Vroletype
p1369
V00
p1370
sV_id
p1371
g14
(g15
g16
NtRp1372
S'Wt\xdc\x02\xe5\xbe:\n\x96\x84X\x97'
p1373
bsVid
p1374
I74079
sVedutype
p1375
VB
sa(dp1376
Vroletype
p1377
V00
p1378
sV_id
p1379
g14
(g15
g16
NtRp1380
S'Wt\xdc\x02\xe5\xbe:\n\x96\x84X\xab'
p1381
bsVid
p1382
I74099
sVedutype
p1383
VB
sa(dp1384
Vroletype
p1385
V00
p1386
sV_id
p1387
g14
(g15
g16
NtRp1388
S'Wt\xdc\x02\xe5\xbe:\n\x96\x84Y\t'
p1389
bsVid
p1390
I74193
sVedutype
p1391
VB
sa(dp1392
Vroletype
p1393
V00
p1394
sV_id
p1395
g14
(g15
g16
NtRp1396
S'Wt\xdc\x02\xe5\xbe:\n\x96\x84Y\x0e'
p1397
bsVid
p1398
I74198
sVedutype
p1399
VB
sa(dp1400
Vroletype
p1401
V00
p1402
sV_id
p1403
g14
(g15
g16
NtRp1404
S'Wt\xdc\x02\xe5\xbe:\n\x96\x84Y\x19'
p1405
bsVid
p1406
I74209
sVedutype
p1407
VB
sag979
a(dp1408
Vroletype
p1409
V00
p1410
sV_id
p1411
g14
(g15
g16
NtRp1412
S'Wt\xdc\x02\xe5\xbe:\n\x96\x84YO'
p1413
bsVid
p1414
I74263
sVedutype
p1415
VB
sa(dp1416
Vroletype
p1417
V00
p1418
sV_id
p1419
g14
(g15
g16
NtRp1420
S'Wt\xdc\x02\xe5\xbe:\n\x96\x84Y\xb6'
p1421
bsVid
p1422
I74366
sVedutype
p1423
VB
sa(dp1424
Vroletype
p1425
V00
p1426
sV_id
p1427
g14
(g15
g16
NtRp1428
S'Wt\xdc\x02\xe5\xbe:\n\x96\x84Y\xfc'
p1429
bsVid
p1430
I74436
sVedutype
p1431
VB
sa(dp1432
Vroletype
p1433
V00
p1434
sV_id
p1435
g14
(g15
g16
NtRp1436
S'Wt\xdc\x02\xe5\xbe:\n\x96\x84Z\x0e'
p1437
bsVid
p1438
I74454
sVedutype
p1439
VB
sag277
a(dp1440
Vroletype
p1441
V00
p1442
sV_id
p1443
g14
(g15
g16
NtRp1444
S'Wt\xdc\x02\xe5\xbe:\n\x96\x84Z]'
p1445
bsVid
p1446
I74533
sVedutype
p1447
VC
sa(dp1448
Vroletype
p1449
V00
p1450
sV_id
p1451
g14
(g15
g16
NtRp1452
S'Wt\xdc\x02\xe5\xbe:\n\x96\x84Zu'
p1453
bsVid
p1454
I74557
sVedutype
p1455
VB
sa(dp1456
Vroletype
p1457
V00
p1458
sV_id
p1459
g14
(g15
g16
NtRp1460
S'Wt\xdc\x02\xe5\xbe:\n\x96\x84Z\xa5'
p1461
bsVid
p1462
I74606
sVedutype
p1463
VB
sa(dp1464
Vroletype
p1465
V00
p1466
sV_id
p1467
g14
(g15
g16
NtRp1468
S'Wt\xdc\x02\xe5\xbe:\n\x96\x84Z\xb2'
p1469
bsVid
p1470
I74619
sVedutype
p1471
VC
sa(dp1472
Vroletype
p1473
V00
p1474
sV_id
p1475
g14
(g15
g16
NtRp1476
S'Wt\xdc\x02\xe5\xbe:\n\x96\x84[\x03'
p1477
bsVid
p1478
I74701
sVedutype
p1479
VC
sa(dp1480
Vroletype
p1481
V00
p1482
sV_id
p1483
g14
(g15
g16
NtRp1484
S'Wt\xdc\x02\xe5\xbe:\n\x96\x84[\x19'
p1485
bsVid
p1486
I74723
sVedutype
p1487
VB
sa(dp1488
Vroletype
p1489
V00
p1490
sV_id
p1491
g14
(g15
g16
NtRp1492
S'Wt\xdc\x02\xe5\xbe:\n\x96\x84[\x1d'
p1493
bsVid
p1494
I74727
sVedutype
p1495
VB
sa(dp1496
Vroletype
p1497
V00
p1498
sV_id
p1499
g14
(g15
g16
NtRp1500
S'Wt\xdc\x02\xe5\xbe:\n\x96\x84[8'
p1501
bsVid
p1502
I74754
sVedutype
p1503
VB
sag1011
a(dp1504
Vroletype
p1505
V00
p1506
sV_id
p1507
g14
(g15
g16
NtRp1508
S'Wt\xdc\x02\xe5\xbe:\n\x96\x84[W'
p1509
bsVid
p1510
I74785
sVedutype
p1511
VB
sag1035
a(dp1512
Vroletype
p1513
V00
p1514
sV_id
p1515
g14
(g15
g16
NtRp1516
S'Wt\xdc\x02\xe5\xbe:\n\x96\x84[\xe9'
p1517
bsVid
p1518
I74931
sVedutype
p1519
VB
sa(dp1520
Vroletype
p1521
V00
p1522
sV_id
p1523
g14
(g15
g16
NtRp1524
S'Wt\xdc\x02\xe5\xbe:\n\x96\x84\\\x04'
p1525
bsVid
p1526
I74958
sVedutype
p1527
VC
sa(dp1528
Vroletype
p1529
V00
p1530
sV_id
p1531
g14
(g15
g16
NtRp1532
S'Wt\xdc\x02\xe5\xbe:\n\x96\x84\\\x08'
p1533
bsVid
p1534
I74962
sVedutype
p1535
VB
sa(dp1536
Vroletype
p1537
V00
p1538
sV_id
p1539
g14
(g15
g16
NtRp1540
S'Wt\xdc\x02\xe5\xbe:\n\x96\x84\\F'
p1541
bsVid
p1542
I75024
sVedutype
p1543
VB
sa(dp1544
Vroletype
p1545
V00
p1546
sV_id
p1547
g14
(g15
g16
NtRp1548
S'Wt\xdc\x02\xe5\xbe:\n\x96\x84\\\xca'
p1549
bsVid
p1550
I75157
sVedutype
p1551
VC
sa(dp1552
Vroletype
p1553
V00
p1554
sV_id
p1555
g14
(g15
g16
NtRp1556
S'Wt\xdc\x02\xe5\xbe:\n\x96\x84\\\xfd'
p1557
bsVid
p1558
I75208
sVedutype
p1559
VB
sa(dp1560
Vroletype
p1561
V00
p1562
sV_id
p1563
g14
(g15
g16
NtRp1564
S'Wt\xdc\x02\xe5\xbe:\n\x96\x84]\x05'
p1565
bsVid
p1566
I75216
sVedutype
p1567
VC
sa(dp1568
Vroletype
p1569
V00
p1570
sV_id
p1571
g14
(g15
g16
NtRp1572
S'Wt\xdc\x04\xe5\xbe:\n\x96\x84px'
p1573
bsVid
p1574
I80195
sVedutype
p1575
VB
sag1083
a(dp1576
Vroletype
p1577
V00
p1578
sV_id
p1579
g14
(g15
g16
NtRp1580
S'Wt\xdc\x04\xe5\xbe:\n\x96\x84p\xe4'
p1581
bsVid
p1582
I80303
sVedutype
p1583
VB
sa(dp1584
Vroletype
p1585
V00
p1586
sV_id
p1587
g14
(g15
g16
NtRp1588
S'Wt\xdc\x04\xe5\xbe:\n\x96\x84p\xec'
p1589
bsVid
p1590
I80311
sVedutype
p1591
VC
sa(dp1592
Vroletype
p1593
V00
p1594
sV_id
p1595
g14
(g15
g16
NtRp1596
S'Wt\xdc\x04\xe5\xbe:\n\x96\x84q\x0f'
p1597
bsVid
p1598
I80346
sVedutype
p1599
VC
sa(dp1600
Vroletype
p1601
V00
p1602
sV_id
p1603
g14
(g15
g16
NtRp1604
S'Wt\xdc\x04\xe5\xbe:\n\x96\x84q\x17'
p1605
bsVid
p1606
I80354
sVedutype
p1607
VB
sa(dp1608
Vroletype
p1609
V00
p1610
sV_id
p1611
g14
(g15
g16
NtRp1612
S'Wt\xdc\x04\xe5\xbe:\n\x96\x84q3'
p1613
bsVid
p1614
I80382
sVedutype
p1615
VB
sa(dp1616
Vroletype
p1617
V00
p1618
sV_id
p1619
g14
(g15
g16
NtRp1620
S'Wt\xdc\x04\xe5\xbe:\n\x96\x84q='
p1621
bsVid
p1622
I80392
sVedutype
p1623
VB
sa(dp1624
Vroletype
p1625
V00
p1626
sV_id
p1627
g14
(g15
g16
NtRp1628
S'Wt\xdc\x04\xe5\xbe:\n\x96\x84qN'
p1629
bsVid
p1630
I80409
sVedutype
p1631
VB
sa(dp1632
Vroletype
p1633
V00
p1634
sV_id
p1635
g14
(g15
g16
NtRp1636
S'Wt\xdc\x04\xe5\xbe:\n\x96\x84rk'
p1637
bsVid
p1638
I80694
sVedutype
p1639
VB
sa(dp1640
Vroletype
p1641
V00
p1642
sV_id
p1643
g14
(g15
g16
NtRp1644
S'Wt\xdc\x04\xe5\xbe:\n\x96\x84r\x82'
p1645
bsVid
p1646
I80717
sVedutype
p1647
VB
sa(dp1648
Vroletype
p1649
V00
p1650
sV_id
p1651
g14
(g15
g16
NtRp1652
S'Wt\xdc\x05\xe5\xbe:\n\x96\x84r\xbe'
p1653
bsVid
p1654
I80777
sVedutype
p1655
VC
sag1123
a(dp1656
Vroletype
p1657
V00
p1658
sV_id
p1659
g14
(g15
g16
NtRp1660
S'Wt\xdc\x05\xe5\xbe:\n\x96\x84s\xa2'
p1661
bsVid
p1662
I81006
sVedutype
p1663
VB
sa(dp1664
Vroletype
p1665
V00
p1666
sV_id
p1667
g14
(g15
g16
NtRp1668
S'Wt\xdc\x05\xe5\xbe:\n\x96\x84t\x19'
p1669
bsVid
p1670
I81125
sVedutype
p1671
VB
sa(dp1672
Vroletype
p1673
V00
p1674
sV_id
p1675
g14
(g15
g16
NtRp1676
S'Wt\xdc\x05\xe5\xbe:\n\x96\x84t#'
p1677
bsVid
p1678
I81135
sVedutype
p1679
VB
sa(dp1680
Vroletype
p1681
V00
p1682
sV_id
p1683
g14
(g15
g16
NtRp1684
S'Wt\xdc\x05\xe5\xbe:\n\x96\x84tT'
p1685
bsVid
p1686
I81184
sVedutype
p1687
VB
sa(dp1688
Vroletype
p1689
V00
p1690
sV_id
p1691
g14
(g15
g16
NtRp1692
S'Wt\xdc\x05\xe5\xbe:\n\x96\x84tg'
p1693
bsVid
p1694
I81203
sVedutype
p1695
VB
sag1139
a(dp1696
Vroletype
p1697
V00
p1698
sV_id
p1699
g14
(g15
g16
NtRp1700
S'Wt\xdc\x05\xe5\xbe:\n\x96\x84t\xbc'
p1701
bsVid
p1702
I81288
sVedutype
p1703
VB
sag545
a(dp1704
Vroletype
p1705
V00
p1706
sV_id
p1707
g14
(g15
g16
NtRp1708
S'Wt\xdc\x05\xe5\xbe:\n\x96\x84t\xf2'
p1709
bsVid
p1710
I81342
sVedutype
p1711
VB
sa(dp1712
Vroletype
p1713
V00
p1714
sV_id
p1715
g14
(g15
g16
NtRp1716
S'Wt\xdc\x05\xe5\xbe:\n\x96\x84t\xf7'
p1717
bsVid
p1718
I81347
sVedutype
p1719
VB
sa(dp1720
Vroletype
p1721
V00
p1722
sV_id
p1723
g14
(g15
g16
NtRp1724
S'Wt\xdc\x05\xe5\xbe:\n\x96\x84uO'
p1725
bsVid
p1726
I81435
sVedutype
p1727
VB
sa(dp1728
Vroletype
p1729
V05
p1730
sV_id
p1731
g14
(g15
g16
NtRp1732
S'Wt\xdc\x05\xe5\xbe:\n\x96\x84u\xbb'
p1733
bsVid
p1734
I81543
sVedutype
p1735
VF
sa(dp1736
Vroletype
p1737
V00
p1738
sV_id
p1739
g14
(g15
g16
NtRp1740
S'Wt\xdc\x05\xe5\xbe:\n\x96\x84u\xda'
p1741
bsVid
p1742
I81574
sVedutype
p1743
VB
sa(dp1744
Vroletype
p1745
V00
p1746
sV_id
p1747
g14
(g15
g16
NtRp1748
S'Wt\xdc\x05\xe5\xbe:\n\x96\x84u\xdb'
p1749
bsVid
p1750
I81575
sVedutype
p1751
VB
sa(dp1752
Vroletype
p1753
V00
p1754
sV_id
p1755
g14
(g15
g16
NtRp1756
S'Wt\xdc\x05\xe5\xbe:\n\x96\x84u\xe2'
p1757
bsVid
p1758
I81582
sVedutype
p1759
VB
sa(dp1760
Vroletype
p1761
V00
p1762
sV_id
p1763
g14
(g15
g16
NtRp1764
S'Wt\xdc\x05\xe5\xbe:\n\x96\x84u\xe3'
p1765
bsVid
p1766
I81583
sVedutype
p1767
VB
sa(dp1768
Vroletype
p1769
V00
p1770
sV_id
p1771
g14
(g15
g16
NtRp1772
S'Wt\xdc\x05\xe5\xbe:\n\x96\x84u\xe4'
p1773
bsVid
p1774
I81584
sVedutype
p1775
VB
sa(dp1776
Vroletype
p1777
V00
p1778
sV_id
p1779
g14
(g15
g16
NtRp1780
S'Wt\xdc\x05\xe5\xbe:\n\x96\x84v/'
p1781
bsVid
p1782
I81659
sVedutype
p1783
VB
sag1155
a(dp1784
Vroletype
p1785
V00
p1786
sV_id
p1787
g14
(g15
g16
NtRp1788
S'Wt\xdc\x05\xe5\xbe:\n\x96\x84v^'
p1789
bsVid
p1790
I81706
sVedutype
p1791
VC
sa(dp1792
Vroletype
p1793
V00
p1794
sV_id
p1795
g14
(g15
g16
NtRp1796
S'Wt\xdc\x05\xe5\xbe:\n\x96\x84vy'
p1797
bsVid
p1798
I81733
sVedutype
p1799
VB
sa(dp1800
Vroletype
p1801
V02
p1802
sV_id
p1803
g14
(g15
g16
NtRp1804
S'Wt\xdc\x05\xe5\xbe:\n\x96\x84v\xef'
p1805
bsVid
p1806
I81851
sVedutype
p1807
VB
sa(dp1808
Vroletype
p1809
V00
p1810
sV_id
p1811
g14
(g15
g16
NtRp1812
S'Wt\xdc\x05\xe5\xbe:\n\x96\x84v\xf5'
p1813
bsVid
p1814
I81857
sVedutype
p1815
VC
sa(dp1816
Vroletype
p1817
V00
p1818
sV_id
p1819
g14
(g15
g16
NtRp1820
S'Wt\xdc\x05\xe5\xbe:\n\x96\x84w\x0e'
p1821
bsVid
p1822
I81882
sVedutype
p1823
VB
sa(dp1824
Vroletype
p1825
V00
p1826
sV_id
p1827
g14
(g15
g16
NtRp1828
S'Wt\xdc\x05\xe5\xbe:\n\x96\x84w\x13'
p1829
bsVid
p1830
I81887
sVedutype
p1831
VB
sa(dp1832
Vroletype
p1833
V00
p1834
sV_id
p1835
g14
(g15
g16
NtRp1836
S'Wt\xdc\x05\xe5\xbe:\n\x96\x84w\xb5'
p1837
bsVid
p1838
I82049
sVedutype
p1839
VB
sa(dp1840
Vroletype
p1841
V00
p1842
sV_id
p1843
g14
(g15
g16
NtRp1844
S'Wt\xdc\x05\xe5\xbe:\n\x96\x84w\xfc'
p1845
bsVid
p1846
I82120
sVedutype
p1847
VB
sag53
a(dp1848
Vroletype
p1849
V04
p1850
sV_id
p1851
g14
(g15
g16
NtRp1852
S'Wt\xdc\x05\xe5\xbe:\n\x96\x84xo'
p1853
bsVid
p1854
I82235
sVedutype
p1855
VF
sa(dp1856
Vroletype
p1857
V00
p1858
sV_id
p1859
g14
(g15
g16
NtRp1860
S'Wt\xdc\x05\xe5\xbe:\n\x96\x84x\x88'
p1861
bsVid
p1862
I82260
sVedutype
p1863
VB
sa(dp1864
Vroletype
p1865
V00
p1866
sV_id
p1867
g14
(g15
g16
NtRp1868
S'Wt\xdc\x05\xe5\xbe:\n\x96\x84{]'
p1869
bsVid
p1870
I82985
sVedutype
p1871
VB
sag1211
a(dp1872
Vroletype
p1873
V00
p1874
sV_id
p1875
g14
(g15
g16
NtRp1876
S'Wt\xdc\x07\xe5\xbe:\n\x96\x84\x87\xc8'
p1877
bsVid
p1878
I86167
sVedutype
p1879
VC
sag341
a(dp1880
Vroletype
p1881
V00
p1882
sV_id
p1883
g14
(g15
g16
NtRp1884
S'Wt\xdc\x07\xe5\xbe:\n\x96\x84\x88\xab'
p1885
bsVid
p1886
I86394
sVedutype
p1887
VB
sa(dp1888
Vroletype
p1889
V00
p1890
sV_id
p1891
g14
(g15
g16
NtRp1892
S'Wt\xdc\x07\xe5\xbe:\n\x96\x84\x89\x19'
p1893
bsVid
p1894
I86504
sVedutype
p1895
VB
sa(dp1896
Vroletype
p1897
V00
p1898
sV_id
p1899
g14
(g15
g16
NtRp1900
S'Wt\xdc\x07\xe5\xbe:\n\x96\x84\x89\xdd'
p1901
bsVid
p1902
I86700
sVedutype
p1903
VB
sa(dp1904
Vroletype
p1905
V00
p1906
sV_id
p1907
g14
(g15
g16
NtRp1908
S'Wt\xdc\x07\xe5\xbe:\n\x96\x84\x8b7'
p1909
bsVid
p1910
I87046
sVedutype
p1911
VC
sa(dp1912
Vroletype
p1913
V03
p1914
sV_id
p1915
g14
(g15
g16
NtRp1916
S'Wt\xdc\x07\xe5\xbe:\n\x96\x84\x8b`'
p1917
bsVid
p1918
I87087
sVedutype
p1919
VB
sa(dp1920
Vroletype
p1921
V03
p1922
sV_id
p1923
g14
(g15
g16
NtRp1924
S'Wt\xdc\x07\xe5\xbe:\n\x96\x84\x8bn'
p1925
bsVid
p1926
I87101
sVedutype
p1927
VD
sag349
a(dp1928
Vroletype
p1929
V00
p1930
sV_id
p1931
g14
(g15
g16
NtRp1932
S'Wt\xdc\x08\xe5\xbe:\n\x96\x84\x90\x8f'
p1933
bsVid
p1934
I88414
sVedutype
p1935
VB
sa(dp1936
Vroletype
p1937
V00
p1938
sV_id
p1939
g14
(g15
g16
NtRp1940
S'Wt\xdc\x08\xe5\xbe:\n\x96\x84\x910'
p1941
bsVid
p1942
I88575
sVedutype
p1943
VB
sa(dp1944
Vroletype
p1945
V00
p1946
sV_id
p1947
g14
(g15
g16
NtRp1948
S'Wt\xdc\x08\xe5\xbe:\n\x96\x84\x91T'
p1949
bsVid
p1950
I88611
sVedutype
p1951
VB
sa(dp1952
Vroletype
p1953
V00
p1954
sV_id
p1955
g14
(g15
g16
NtRp1956
S'Wt\xdc\x08\xe5\xbe:\n\x96\x84\x91W'
p1957
bsVid
p1958
I88614
sVedutype
p1959
VB
sag173
a(dp1960
Vroletype
p1961
V00
p1962
sV_id
p1963
g14
(g15
g16
NtRp1964
S'Wt\xdc\x08\xe5\xbe:\n\x96\x84\x91\x9e'
p1965
bsVid
p1966
I88685
sVedutype
p1967
VB
sa(dp1968
Vroletype
p1969
V03
p1970
sV_id
p1971
g14
(g15
g16
NtRp1972
S'Wt\xdc\x08\xe5\xbe:\n\x96\x84\x91\xba'
p1973
bsVid
p1974
I88713
sVedutype
p1975
VB
sa(dp1976
Vroletype
p1977
V00
p1978
sV_id
p1979
g14
(g15
g16
NtRp1980
S'Wt\xdc\t\xe5\xbe:\n\x96\x84\x93\x1a'
p1981
bsVid
p1982
I89065
sVedutype
p1983
VB
sa(dp1984
Vroletype
p1985
V00
p1986
sV_id
p1987
g14
(g15
g16
NtRp1988
S'Wt\xdc\t\xe5\xbe:\n\x96\x84\x93,'
p1989
bsVid
p1990
I89083
sVedutype
p1991
VB
sa(dp1992
Vroletype
p1993
V00
p1994
sV_id
p1995
g14
(g15
g16
NtRp1996
S'Wt\xdc\t\xe5\xbe:\n\x96\x84\x93i'
p1997
bsVid
p1998
I89144
sVedutype
p1999
VB
sag205
a(dp2000
Vroletype
p2001
V05
p2002
sV_id
p2003
g14
(g15
g16
NtRp2004
S'Wt\xdc\t\xe5\xbe:\n\x96\x84\x99\x18'
p2005
bsVid
p2006
I90599
sVedutype
p2007
VZ
sa(dp2008
Vroletype
p2009
V00
p2010
sV_id
p2011
g14
(g15
g16
NtRp2012
S'Wt\xdc\t\xe5\xbe:\n\x96\x84\x99\xcc'
p2013
bsVid
p2014
I90779
sVedutype
p2015
VB
sag902
a(dp2016
Vroletype
p2017
V00
p2018
sV_id
p2019
g14
(g15
g16
NtRp2020
S'Wt\xdc\n\xe5\xbe:\n\x96\x84\x9c\xa2'
p2021
bsVid
p2022
I91505
sVedutype
p2023
VB
sa(dp2024
Vroletype
p2025
V00
p2026
sV_id
p2027
g14
(g15
g16
NtRp2028
S'Wt\xdc\n\xe5\xbe:\n\x96\x84\x9d\x96'
p2029
bsVid
p2030
I91749
sVedutype
p2031
VB
sa(dp2032
Vroletype
p2033
V03
p2034
sV_id
p2035
g14
(g15
g16
NtRp2036
S'Wt\xdc\n\xe5\xbe:\n\x96\x84\x9e\x07'
p2037
bsVid
p2038
I91862
sVedutype
p2039
VC
sasg253
g254
((dp2040
VC
I18
sVB
I94
sVE
I1
sVD
I3
sVF
I2
sS'H'
I2
sg256
I2196
sVZ
I4
stRp2041
sa(dp2042
g3
I-1
sg4
I1864
sg5
V627192
p2043
sg7
VB
sg8
(lp2044
I-1
ag10
a(dp2045
Vroletype
p2046
V00
p2047
sV_id
p2048
g14
(g15
g16
NtRp2049
S'Wt\xdb\xf2\xe5\xbe:\n\x96\x83\xd1\x97'
p2050
bsVid
p2051
I36701
sVedutype
p2052
VB
sa(dp2053
Vroletype
p2054
V00
p2055
sV_id
p2056
g14
(g15
g16
NtRp2057
S'Wt\xdb\xf6\xe5\xbe:\n\x96\x84\x00\xe2'
p2058
bsVid
p2059
I51517
sVedutype
p2060
VB
sa(dp2061
Vroletype
p2062
V
sV_id
p2063
g14
(g15
g16
NtRp2064
S'Wt\xdb\xf8\xe5\xbe:\n\x96\x84\x11\xf6'
p2065
bsVid
p2066
I55921
sVedutype
p2067
V
sa(dp2068
Vroletype
p2069
V02
p2070
sV_id
p2071
g14
(g15
g16
NtRp2072
S'Wt\xdc\x01\xe5\xbe:\n\x96\x84Rz'
p2073
bsVid
p2074
I72507
sVedutype
p2075
VB
sa(dp2076
Vroletype
p2077
V\u8077\u7a31\u9078\u64c7
p2078
sV_id
p2079
g14
(g15
g16
NtRp2080
S'Wt\xdc\x01\xe5\xbe:\n\x96\x84W\x1a'
p2081
bsVid
p2082
I73697
sVedutype
p2083
VC
sa(dp2084
Vroletype
p2085
V00
p2086
sV_id
p2087
g14
(g15
g16
NtRp2088
S'Wt\xdc\x02\xe5\xbe:\n\x96\x84W2'
p2089
bsVid
p2090
I73721
sVedutype
p2091
VB
sa(dp2092
Vroletype
p2093
V00
p2094
sV_id
p2095
g14
(g15
g16
NtRp2096
S'Wt\xdc\x02\xe5\xbe:\n\x96\x84WL'
p2097
bsVid
p2098
I73747
sVedutype
p2099
VB
sag1272
a(dp2100
Vroletype
p2101
V00
p2102
sV_id
p2103
g14
(g15
g16
NtRp2104
S'Wt\xdc\x02\xe5\xbe:\n\x96\x84W\x98'
p2105
bsVid
p2106
I73823
sVedutype
p2107
V
sa(dp2108
Vroletype
p2109
V00
p2110
sV_id
p2111
g14
(g15
g16
NtRp2112
S'Wt\xdc\x02\xe5\xbe:\n\x96\x84W\xb6'
p2113
bsVid
p2114
I73853
sVedutype
p2115
VB
sa(dp2116
Vroletype
p2117
V00
p2118
sV_id
p2119
g14
(g15
g16
NtRp2120
S'Wt\xdc\x02\xe5\xbe:\n\x96\x84W\xbb'
p2121
bsVid
p2122
I73858
sVedutype
p2123
VB
sa(dp2124
Vroletype
p2125
V00
p2126
sV_id
p2127
g14
(g15
g16
NtRp2128
S'Wt\xdc\x02\xe5\xbe:\n\x96\x84W\xbe'
p2129
bsVid
p2130
I73861
sVedutype
p2131
VB
sa(dp2132
Vroletype
p2133
V00
p2134
sV_id
p2135
g14
(g15
g16
NtRp2136
S'Wt\xdc\x02\xe5\xbe:\n\x96\x84W\xdc'
p2137
bsVid
p2138
I73891
sVedutype
p2139
VB
sa(dp2140
Vroletype
p2141
V00
p2142
sV_id
p2143
g14
(g15
g16
NtRp2144
S'Wt\xdc\x02\xe5\xbe:\n\x96\x84X\x05'
p2145
bsVid
p2146
I73932
sVedutype
p2147
VC
sa(dp2148
Vroletype
p2149
V01
p2150
sV_id
p2151
g14
(g15
g16
NtRp2152
S'Wt\xdc\x02\xe5\xbe:\n\x96\x84X\x0b'
p2153
bsVid
p2154
I73938
sVedutype
p2155
VF
sag1336
a(dp2156
Vroletype
p2157
V01
p2158
sV_id
p2159
g14
(g15
g16
NtRp2160
S'Wt\xdc\x02\xe5\xbe:\n\x96\x84Y;'
p2161
bsVid
p2162
I74243
sVedutype
p2163
VC
sa(dp2164
Vroletype
p2165
V00
p2166
sV_id
p2167
g14
(g15
g16
NtRp2168
S'Wt\xdc\x02\xe5\xbe:\n\x96\x84Y\x96'
p2169
bsVid
p2170
I74334
sVedutype
p2171
VB
sa(dp2172
Vroletype
p2173
V00
p2174
sV_id
p2175
g14
(g15
g16
NtRp2176
S'Wt\xdc\x02\xe5\xbe:\n\x96\x84Y\xa9'
p2177
bsVid
p2178
I74353
sVedutype
p2179
VB
sag1416
a(dp2180
Vroletype
p2181
V00
p2182
sV_id
p2183
g14
(g15
g16
NtRp2184
S'Wt\xdc\x02\xe5\xbe:\n\x96\x84Y\xc7'
p2185
bsVid
p2186
I74383
sVedutype
p2187
VB
sa(dp2188
Vroletype
p2189
V00
p2190
sV_id
p2191
g14
(g15
g16
NtRp2192
S'Wt\xdc\x02\xe5\xbe:\n\x96\x84Z\x0f'
p2193
bsVid
p2194
I74455
sVedutype
p2195
VC
sa(dp2196
Vroletype
p2197
V00
p2198
sV_id
p2199
g14
(g15
g16
NtRp2200
S'Wt\xdc\x02\xe5\xbe:\n\x96\x84Z3'
p2201
bsVid
p2202
I74491
sVedutype
p2203
VB
sag1448
a(dp2204
Vroletype
p2205
V00
p2206
sV_id
p2207
g14
(g15
g16
NtRp2208
S'Wt\xdc\x02\xe5\xbe:\n\x96\x84Z\xbf'
p2209
bsVid
p2210
I74632
sVedutype
p2211
VB
sa(dp2212
Vroletype
p2213
V00
p2214
sV_id
p2215
g14
(g15
g16
NtRp2216
S'Wt\xdc\x02\xe5\xbe:\n\x96\x84[t'
p2217
bsVid
p2218
I74814
sVedutype
p2219
VB
sa(dp2220
Vroletype
p2221
V00
p2222
sV_id
p2223
g14
(g15
g16
NtRp2224
S'Wt\xdc\x02\xe5\xbe:\n\x96\x84[z'
p2225
bsVid
p2226
I74820
sVedutype
p2227
VC
sag1027
a(dp2228
Vroletype
p2229
V00
p2230
sV_id
p2231
g14
(g15
g16
NtRp2232
S'Wt\xdc\x02\xe5\xbe:\n\x96\x84\\\x1a'
p2233
bsVid
p2234
I74980
sVedutype
p2235
VB
sa(dp2236
Vroletype
p2237
V00
p2238
sV_id
p2239
g14
(g15
g16
NtRp2240
S'Wt\xdc\x02\xe5\xbe:\n\x96\x84\\\x1f'
p2241
bsVid
p2242
I74985
sVedutype
p2243
VC
sag1536
a(dp2244
Vroletype
p2245
V05
p2246
sV_id
p2247
g14
(g15
g16
NtRp2248
S'Wt\xdc\x02\xe5\xbe:\n\x96\x84\\u'
p2249
bsVid
p2250
I75072
sVedutype
p2251
VF
sa(dp2252
Vroletype
p2253
V00
p2254
sV_id
p2255
g14
(g15
g16
NtRp2256
S'Wt\xdc\x04\xe5\xbe:\n\x96\x84p\x8b'
p2257
bsVid
p2258
I80214
sVedutype
p2259
VB
sa(dp2260
Vroletype
p2261
V00
p2262
sV_id
p2263
g14
(g15
g16
NtRp2264
S'Wt\xdc\x04\xe5\xbe:\n\x96\x84p\x9e'
p2265
bsVid
p2266
I80233
sVedutype
p2267
VB
sa(dp2268
Vroletype
p2269
V00
p2270
sV_id
p2271
g14
(g15
g16
NtRp2272
S'Wt\xdc\x04\xe5\xbe:\n\x96\x84p\xae'
p2273
bsVid
p2274
I80249
sVedutype
p2275
VB
sa(dp2276
Vroletype
p2277
V00
p2278
sV_id
p2279
g14
(g15
g16
NtRp2280
S'Wt\xdc\x04\xe5\xbe:\n\x96\x84p\xdd'
p2281
bsVid
p2282
I80296
sVedutype
p2283
VB
sag1091
a(dp2284
Vroletype
p2285
V00
p2286
sV_id
p2287
g14
(g15
g16
NtRp2288
S'Wt\xdc\x04\xe5\xbe:\n\x96\x84q\x01'
p2289
bsVid
p2290
I80332
sVedutype
p2291
VC
sa(dp2292
Vroletype
p2293
V00
p2294
sV_id
p2295
g14
(g15
g16
NtRp2296
S'Wt\xdc\x04\xe5\xbe:\n\x96\x84q\t'
p2297
bsVid
p2298
I80340
sVedutype
p2299
VB
sag1099
ag1600
a(dp2300
Vroletype
p2301
V00
p2302
sV_id
p2303
g14
(g15
g16
NtRp2304
S'Wt\xdc\x04\xe5\xbe:\n\x96\x84q5'
p2305
bsVid
p2306
I80384
sVedutype
p2307
VE
sa(dp2308
Vroletype
p2309
V00
p2310
sV_id
p2311
g14
(g15
g16
NtRp2312
S'Wt\xdc\x04\xe5\xbe:\n\x96\x84qs'
p2313
bsVid
p2314
I80446
sVedutype
p2315
VB
sa(dp2316
Vroletype
p2317
V00
p2318
sV_id
p2319
g14
(g15
g16
NtRp2320
S'Wt\xdc\x04\xe5\xbe:\n\x96\x84qx'
p2321
bsVid
p2322
I80451
sVedutype
p2323
VB
sa(dp2324
Vroletype
p2325
V00
p2326
sV_id
p2327
g14
(g15
g16
NtRp2328
S'Wt\xdc\x04\xe5\xbe:\n\x96\x84q\xc7'
p2329
bsVid
p2330
I80530
sVedutype
p2331
VB
sa(dp2332
Vroletype
p2333
V00
p2334
sV_id
p2335
g14
(g15
g16
NtRp2336
S'Wt\xdc\x04\xe5\xbe:\n\x96\x84rl'
p2337
bsVid
p2338
I80695
sVedutype
p2339
VB
sa(dp2340
Vroletype
p2341
V00
p2342
sV_id
p2343
g14
(g15
g16
NtRp2344
S'Wt\xdc\x04\xe5\xbe:\n\x96\x84rp'
p2345
bsVid
p2346
I80699
sVedutype
p2347
VF
sa(dp2348
Vroletype
p2349
V00
p2350
sV_id
p2351
g14
(g15
g16
NtRp2352
S'Wt\xdc\x04\xe5\xbe:\n\x96\x84r\xa3'
p2353
bsVid
p2354
I80750
sVedutype
p2355
VB
sag1648
a(dp2356
Vroletype
p2357
V00
p2358
sV_id
p2359
g14
(g15
g16
NtRp2360
S'Wt\xdc\x05\xe5\xbe:\n\x96\x84r\xd6'
p2361
bsVid
p2362
I80801
sVedutype
p2363
VC
sa(dp2364
Vroletype
p2365
V00
p2366
sV_id
p2367
g14
(g15
g16
NtRp2368
S'Wt\xdc\x05\xe5\xbe:\n\x96\x84s\xde'
p2369
bsVid
p2370
I81066
sVedutype
p2371
VB
sa(dp2372
Vroletype
p2373
V00
p2374
sV_id
p2375
g14
(g15
g16
NtRp2376
S'Wt\xdc\x05\xe5\xbe:\n\x96\x84t\x17'
p2377
bsVid
p2378
I81123
sVedutype
p2379
VB
sag1696
a(dp2380
Vroletype
p2381
V01
p2382
sV_id
p2383
g14
(g15
g16
NtRp2384
S'Wt\xdc\x05\xe5\xbe:\n\x96\x84uJ'
p2385
bsVid
p2386
I81430
sVedutype
p2387
VB
sa(dp2388
Vroletype
p2389
V00
p2390
sV_id
p2391
g14
(g15
g16
NtRp2392
S'Wt\xdc\x05\xe5\xbe:\n\x96\x84u\xd8'
p2393
bsVid
p2394
I81572
sVedutype
p2395
VB
sag1736
ag1155
a(dp2396
Vroletype
p2397
V00
p2398
sV_id
p2399
g14
(g15
g16
NtRp2400
S'Wt\xdc\x05\xe5\xbe:\n\x96\x84v\xf6'
p2401
bsVid
p2402
I81858
sVedutype
p2403
VB
sa(dp2404
Vroletype
p2405
V00
p2406
sV_id
p2407
g14
(g15
g16
NtRp2408
S'Wt\xdc\x05\xe5\xbe:\n\x96\x84w\x18'
p2409
bsVid
p2410
I81892
sVedutype
p2411
VC
sa(dp2412
Vroletype
p2413
V00
p2414
sV_id
p2415
g14
(g15
g16
NtRp2416
S'Wt\xdc\x05\xe5\xbe:\n\x96\x84wG'
p2417
bsVid
p2418
I81939
sVedutype
p2419
VB
sa(dp2420
Vroletype
p2421
V00
p2422
sV_id
p2423
g14
(g15
g16
NtRp2424
S'Wt\xdc\x05\xe5\xbe:\n\x96\x84wP'
p2425
bsVid
p2426
I81948
sVedutype
p2427
VB
sa(dp2428
Vroletype
p2429
V00
p2430
sV_id
p2431
g14
(g15
g16
NtRp2432
S'Wt\xdc\x05\xe5\xbe:\n\x96\x84w\x87'
p2433
bsVid
p2434
I82003
sVedutype
p2435
VB
sa(dp2436
Vroletype
p2437
V00
p2438
sV_id
p2439
g14
(g15
g16
NtRp2440
S'Wt\xdc\x05\xe5\xbe:\n\x96\x84w\x8b'
p2441
bsVid
p2442
I82007
sVedutype
p2443
VB
sa(dp2444
Vroletype
p2445
V00
p2446
sV_id
p2447
g14
(g15
g16
NtRp2448
S'Wt\xdc\x05\xe5\xbe:\n\x96\x84w\xae'
p2449
bsVid
p2450
I82042
sVedutype
p2451
VB
sag1832
ag1840
ag1179
a(dp2452
Vroletype
p2453
V00
p2454
sV_id
p2455
g14
(g15
g16
NtRp2456
S'Wt\xdc\x05\xe5\xbe:\n\x96\x84x\x12'
p2457
bsVid
p2458
I82142
sVedutype
p2459
VC
sa(dp2460
Vroletype
p2461
V00
p2462
sV_id
p2463
g14
(g15
g16
NtRp2464
S'Wt\xdc\x05\xe5\xbe:\n\x96\x84x\xc3'
p2465
bsVid
p2466
I82319
sVedutype
p2467
VB
sa(dp2468
Vroletype
p2469
V00
p2470
sV_id
p2471
g14
(g15
g16
NtRp2472
S'Wt\xdc\x05\xe5\xbe:\n\x96\x84ye'
p2473
bsVid
p2474
I82481
sVedutype
p2475
VB
sag1211
a(dp2476
Vroletype
p2477
V00
p2478
sV_id
p2479
g14
(g15
g16
NtRp2480
S'Wt\xdc\x08\xe5\xbe:\n\x96\x84\x90p'
p2481
bsVid
p2482
I88383
sVedutype
p2483
VB
sa(dp2484
Vroletype
p2485
V01
p2486
sV_id
p2487
g14
(g15
g16
NtRp2488
S'Wt\xdc\t\xe5\xbe:\n\x96\x84\x96\x1c'
p2489
bsVid
p2490
I89835
sVedutype
p2491
VC
sasg253
g254
((dp2492
VC
I14
sVB
I51
sVE
I1
sVD
I1
sVF
I4
sS'H'
I2
sg256
I1729
sVZ
I1
stRp2493
sa(dp2494
g3
I-1
sg4
I1573
sg5
V1512907
p2495
sg7
VB
sg8
(lp2496
I-1
a(dp2497
Vroletype
p2498
V00
p2499
sV_id
p2500
g14
(g15
g16
NtRp2501
S'Wt\xdb\xf9\xe5\xbe:\n\x96\x84\x12\xf6'
p2502
bsVid
p2503
I56180
sVedutype
p2504
VB
sa(dp2505
Vroletype
p2506
V00
p2507
sV_id
p2508
g14
(g15
g16
NtRp2509
S'Wt\xdb\xfd\xe5\xbe:\n\x96\x8400'
p2510
bsVid
p2511
I63697
sVedutype
p2512
VB
sa(dp2513
Vroletype
p2514
V00
p2515
sV_id
p2516
g14
(g15
g16
NtRp2517
S'Wt\xdb\xfd\xe5\xbe:\n\x96\x842\xa0'
p2518
bsVid
p2519
I64325
sVedutype
p2520
V
sa(dp2521
Vroletype
p2522
V00
p2523
sV_id
p2524
g14
(g15
g16
NtRp2525
S'Wt\xdb\xff\xe5\xbe:\n\x96\x84D\t'
p2526
bsVid
p2527
I68798
sVedutype
p2528
VB
sa(dp2529
Vroletype
p2530
V00
p2531
sV_id
p2532
g14
(g15
g16
NtRp2533
S'Wt\xdc\x02\xe5\xbe:\n\x96\x84X\x90'
p2534
bsVid
p2535
I74072
sVedutype
p2536
VB
sa(dp2537
Vroletype
p2538
V00
p2539
sV_id
p2540
g14
(g15
g16
NtRp2541
S'Wt\xdc\x02\xe5\xbe:\n\x96\x84X\xfb'
p2542
bsVid
p2543
I74179
sVedutype
p2544
VB
sa(dp2545
Vroletype
p2546
V00
p2547
sV_id
p2548
g14
(g15
g16
NtRp2549
S'Wt\xdc\x02\xe5\xbe:\n\x96\x84Y\x11'
p2550
bsVid
p2551
I74201
sVedutype
p2552
VB
sag1416
a(dp2553
Vroletype
p2554
V00
p2555
sV_id
p2556
g14
(g15
g16
NtRp2557
S'Wt\xdc\x02\xe5\xbe:\n\x96\x84Z\xac'
p2558
bsVid
p2559
I74613
sVedutype
p2560
VB
sa(dp2561
Vroletype
p2562
V00
p2563
sV_id
p2564
g14
(g15
g16
NtRp2565
S'Wt\xdc\x02\xe5\xbe:\n\x96\x84[\xa0'
p2566
bsVid
p2567
I74858
sVedutype
p2568
VB
sa(dp2569
Vroletype
p2570
V00
p2571
sV_id
p2572
g14
(g15
g16
NtRp2573
S'Wt\xdc\x04\xe5\xbe:\n\x96\x84l\x9c'
p2574
bsVid
p2575
I79207
sVedutype
p2576
VB
sa(dp2577
Vroletype
p2578
V00
p2579
sV_id
p2580
g14
(g15
g16
NtRp2581
S'Wt\xdc\x05\xe5\xbe:\n\x96\x84s\x13'
p2582
bsVid
p2583
I80862
sVedutype
p2584
VB
sa(dp2585
Vroletype
p2586
V00
p2587
sV_id
p2588
g14
(g15
g16
NtRp2589
S'Wt\xdc\x05\xe5\xbe:\n\x96\x84s\x1e'
p2590
bsVid
p2591
I80873
sVedutype
p2592
VB
sag1672
a(dp2593
Vroletype
p2594
V00
p2595
sV_id
p2596
g14
(g15
g16
NtRp2597
S'Wt\xdc\x05\xe5\xbe:\n\x96\x84um'
p2598
bsVid
p2599
I81465
sVedutype
p2600
VB
sa(dp2601
Vroletype
p2602
V00
p2603
sV_id
p2604
g14
(g15
g16
NtRp2605
S'Wt\xdc\x05\xe5\xbe:\n\x96\x84y\x01'
p2606
bsVid
p2607
I82381
sVedutype
p2608
VB
sa(dp2609
Vroletype
p2610
V00
p2611
sV_id
p2612
g14
(g15
g16
NtRp2613
S'Wt\xdc\x05\xe5\xbe:\n\x96\x84y\xac'
p2614
bsVid
p2615
I82552
sVedutype
p2616
VB
sa(dp2617
Vroletype
p2618
V00
p2619
sV_id
p2620
g14
(g15
g16
NtRp2621
S'Wt\xdc\x06\xe5\xbe:\n\x96\x84|\x8a'
p2622
bsVid
p2623
I83288
sVedutype
p2624
VB
sa(dp2625
Vroletype
p2626
V00
p2627
sV_id
p2628
g14
(g15
g16
NtRp2629
S'Wt\xdc\x06\xe5\xbe:\n\x96\x84}\n'
p2630
bsVid
p2631
I83416
sVedutype
p2632
VB
sa(dp2633
Vroletype
p2634
V00
p2635
sV_id
p2636
g14
(g15
g16
NtRp2637
S'Wt\xdc\x06\xe5\xbe:\n\x96\x84\x7f>'
p2638
bsVid
p2639
I83980
sVedutype
p2640
VE
sag1219
a(dp2641
Vroletype
p2642
V00
p2643
sV_id
p2644
g14
(g15
g16
NtRp2645
S'Wt\xdc\x06\xe5\xbe:\n\x96\x84\x81\x98'
p2646
bsVid
p2647
I84582
sVedutype
p2648
VB
sa(dp2649
Vroletype
p2650
V00
p2651
sV_id
p2652
g14
(g15
g16
NtRp2653
S'Wt\xdc\x06\xe5\xbe:\n\x96\x84\x81\xa3'
p2654
bsVid
p2655
I84593
sVedutype
p2656
VB
sa(dp2657
Vroletype
p2658
V00
p2659
sV_id
p2660
g14
(g15
g16
NtRp2661
S'Wt\xdc\x07\xe5\xbe:\n\x96\x84\x85\x02'
p2662
bsVid
p2663
I85456
sVedutype
p2664
VD
sa(dp2665
Vroletype
p2666
V00
p2667
sV_id
p2668
g14
(g15
g16
NtRp2669
S'Wt\xdc\x07\xe5\xbe:\n\x96\x84\x85\xe5'
p2670
bsVid
p2671
I85684
sVedutype
p2672
VB
sa(dp2673
Vroletype
p2674
V00
p2675
sV_id
p2676
g14
(g15
g16
NtRp2677
S'Wt\xdc\x07\xe5\xbe:\n\x96\x84\x86\xa1'
p2678
bsVid
p2679
I85872
sVedutype
p2680
VB
sag1872
ag341
ag133
a(dp2681
Vroletype
p2682
V00
p2683
sV_id
p2684
g14
(g15
g16
NtRp2685
S'Wt\xdc\x07\xe5\xbe:\n\x96\x84\x89\xff'
p2686
bsVid
p2687
I86734
sVedutype
p2688
VB
sa(dp2689
Vroletype
p2690
V00
p2691
sV_id
p2692
g14
(g15
g16
NtRp2693
S'Wt\xdc\x07\xe5\xbe:\n\x96\x84\x8b&'
p2694
bsVid
p2695
I87029
sVedutype
p2696
VB
sa(dp2697
Vroletype
p2698
V00
p2699
sV_id
p2700
g14
(g15
g16
NtRp2701
S'Wt\xdc\x07\xe5\xbe:\n\x96\x84\x8b\\'
p2702
bsVid
p2703
I87083
sVedutype
p2704
VB
sa(dp2705
Vroletype
p2706
V00
p2707
sV_id
p2708
g14
(g15
g16
NtRp2709
S'Wt\xdc\x07\xe5\xbe:\n\x96\x84\x8b\xf7'
p2710
bsVid
p2711
I87238
sVedutype
p2712
VB
sa(dp2713
Vroletype
p2714
V00
p2715
sV_id
p2716
g14
(g15
g16
NtRp2717
S'Wt\xdc\x08\xe5\xbe:\n\x96\x84\x8cA'
p2718
bsVid
p2719
I87312
sVedutype
p2720
VB
sa(dp2721
Vroletype
p2722
V00
p2723
sV_id
p2724
g14
(g15
g16
NtRp2725
S'Wt\xdc\x08\xe5\xbe:\n\x96\x84\x8cd'
p2726
bsVid
p2727
I87347
sVedutype
p2728
VB
sa(dp2729
Vroletype
p2730
V00
p2731
sV_id
p2732
g14
(g15
g16
NtRp2733
S'Wt\xdc\x08\xe5\xbe:\n\x96\x84\x8dR'
p2734
bsVid
p2735
I87585
sVedutype
p2736
VB
sa(dp2737
Vroletype
p2738
V00
p2739
sV_id
p2740
g14
(g15
g16
NtRp2741
S'Wt\xdc\x08\xe5\xbe:\n\x96\x84\x8e\xc0'
p2742
bsVid
p2743
I87951
sVedutype
p2744
VB
sa(dp2745
Vroletype
p2746
V00
p2747
sV_id
p2748
g14
(g15
g16
NtRp2749
S"Wt\xdc\x08\xe5\xbe:\n\x96\x84\x8f'"
p2750
bsVid
p2751
I88054
sVedutype
p2752
VB
sa(dp2753
Vroletype
p2754
V00
p2755
sV_id
p2756
g14
(g15
g16
NtRp2757
S'Wt\xdc\x08\xe5\xbe:\n\x96\x84\x8f\x9b'
p2758
bsVid
p2759
I88170
sVedutype
p2760
VB
sa(dp2761
Vroletype
p2762
V03
p2763
sV_id
p2764
g14
(g15
g16
NtRp2765
S'Wt\xdc\x08\xe5\xbe:\n\x96\x84\x90\x11'
p2766
bsVid
p2767
I88288
sVedutype
p2768
VB
sa(dp2769
Vroletype
p2770
V00
p2771
sV_id
p2772
g14
(g15
g16
NtRp2773
S'Wt\xdc\x08\xe5\xbe:\n\x96\x84\x90\xba'
p2774
bsVid
p2775
I88457
sVedutype
p2776
VB
sa(dp2777
Vroletype
p2778
V00
p2779
sV_id
p2780
g14
(g15
g16
NtRp2781
S'Wt\xdc\x08\xe5\xbe:\n\x96\x84\x91C'
p2782
bsVid
p2783
I88594
sVedutype
p2784
VB
sa(dp2785
Vroletype
p2786
V00
p2787
sV_id
p2788
g14
(g15
g16
NtRp2789
S'Wt\xdc\x08\xe5\xbe:\n\x96\x84\x91R'
p2790
bsVid
p2791
I88609
sVedutype
p2792
VB
sag173
ag766
a(dp2793
Vroletype
p2794
V00
p2795
sV_id
p2796
g14
(g15
g16
NtRp2797
S'Wt\xdc\x08\xe5\xbe:\n\x96\x84\x91m'
p2798
bsVid
p2799
I88636
sVedutype
p2800
VB
sag774
a(dp2801
Vroletype
p2802
V00
p2803
sV_id
p2804
g14
(g15
g16
NtRp2805
S'Wt\xdc\x08\xe5\xbe:\n\x96\x84\x91\xb5'
p2806
bsVid
p2807
I88708
sVedutype
p2808
VB
sa(dp2809
Vroletype
p2810
V00
p2811
sV_id
p2812
g14
(g15
g16
NtRp2813
S'Wt\xdc\x08\xe5\xbe:\n\x96\x84\x91\xbd'
p2814
bsVid
p2815
I88716
sVedutype
p2816
VB
sa(dp2817
Vroletype
p2818
V03
p2819
sV_id
p2820
g14
(g15
g16
NtRp2821
S'Wt\xdc\x08\xe5\xbe:\n\x96\x84\x92\x92'
p2822
bsVid
p2823
I88929
sVedutype
p2824
VB
sa(dp2825
Vroletype
p2826
V00
p2827
sV_id
p2828
g14
(g15
g16
NtRp2829
S'Wt\xdc\t\xe5\xbe:\n\x96\x84\x93\x1f'
p2830
bsVid
p2831
I89070
sVedutype
p2832
VB
sa(dp2833
Vroletype
p2834
V00
p2835
sV_id
p2836
g14
(g15
g16
NtRp2837
S'Wt\xdc\t\xe5\xbe:\n\x96\x84\x93*'
p2838
bsVid
p2839
I89081
sVedutype
p2840
VB
sag1992
a(dp2841
Vroletype
p2842
V00
p2843
sV_id
p2844
g14
(g15
g16
NtRp2845
S'Wt\xdc\t\xe5\xbe:\n\x96\x84\x94['
p2846
bsVid
p2847
I89386
sVedutype
p2848
VB
sa(dp2849
Vroletype
p2850
V00
p2851
sV_id
p2852
g14
(g15
g16
NtRp2853
S'Wt\xdc\t\xe5\xbe:\n\x96\x84\x99T'
p2854
bsVid
p2855
I90659
sVedutype
p2856
VB
sa(dp2857
Vroletype
p2858
V00
p2859
sV_id
p2860
g14
(g15
g16
NtRp2861
S'Wt\xdc\t\xe5\xbe:\n\x96\x84\x99['
p2862
bsVid
p2863
I90666
sVedutype
p2864
VB
sa(dp2865
Vroletype
p2866
V00
p2867
sV_id
p2868
g14
(g15
g16
NtRp2869
S'Wt\xdc\t\xe5\xbe:\n\x96\x84\x99\xba'
p2870
bsVid
p2871
I90761
sVedutype
p2872
VB
sa(dp2873
Vroletype
p2874
V00
p2875
sV_id
p2876
g14
(g15
g16
NtRp2877
S'Wt\xdc\t\xe5\xbe:\n\x96\x84\x9aP'
p2878
bsVid
p2879
I90911
sVedutype
p2880
VB
sag878
a(dp2881
Vroletype
p2882
V00
p2883
sV_id
p2884
g14
(g15
g16
NtRp2885
S'Wt\xdc\t\xe5\xbe:\n\x96\x84\x9a\x95'
p2886
bsVid
p2887
I90980
sVedutype
p2888
VB
sa(dp2889
Vroletype
p2890
V00
p2891
sV_id
p2892
g14
(g15
g16
NtRp2893
S'Wt\xdc\t\xe5\xbe:\n\x96\x84\x9b3'
p2894
bsVid
p2895
I91138
sVedutype
p2896
VB
sa(dp2897
Vroletype
p2898
V00
p2899
sV_id
p2900
g14
(g15
g16
NtRp2901
S'Wt\xdc\t\xe5\xbe:\n\x96\x84\x9b5'
p2902
bsVid
p2903
I91140
sVedutype
p2904
VB
sa(dp2905
Vroletype
p2906
V00
p2907
sV_id
p2908
g14
(g15
g16
NtRp2909
S'Wt\xdc\n\xe5\xbe:\n\x96\x84\x9b\x9d'
p2910
bsVid
p2911
I91244
sVedutype
p2912
VB
sa(dp2913
Vroletype
p2914
V00
p2915
sV_id
p2916
g14
(g15
g16
NtRp2917
S'Wt\xdc\n\xe5\xbe:\n\x96\x84\x9b\xb3'
p2918
bsVid
p2919
I91266
sVedutype
p2920
VB
sa(dp2921
Vroletype
p2922
V00
p2923
sV_id
p2924
g14
(g15
g16
NtRp2925
S'Wt\xdc\n\xe5\xbe:\n\x96\x84\x9b\xdf'
p2926
bsVid
p2927
I91310
sVedutype
p2928
VB
sa(dp2929
Vroletype
p2930
V00
p2931
sV_id
p2932
g14
(g15
g16
NtRp2933
S'Wt\xdc\n\xe5\xbe:\n\x96\x84\x9c\x15'
p2934
bsVid
p2935
I91364
sVedutype
p2936
VB
sa(dp2937
Vroletype
p2938
V00
p2939
sV_id
p2940
g14
(g15
g16
NtRp2941
S'Wt\xdc\n\xe5\xbe:\n\x96\x84\x9c+'
p2942
bsVid
p2943
I91386
sVedutype
p2944
VB
sa(dp2945
Vroletype
p2946
V00
p2947
sV_id
p2948
g14
(g15
g16
NtRp2949
S'Wt\xdc\n\xe5\xbe:\n\x96\x84\x9dy'
p2950
bsVid
p2951
I91720
sVedutype
p2952
VB
sa(dp2953
Vroletype
p2954
V00
p2955
sV_id
p2956
g14
(g15
g16
NtRp2957
S'Wt\xdc\n\xe5\xbe:\n\x96\x84\x9d\xc1'
p2958
bsVid
p2959
I91792
sVedutype
p2960
VB
sa(dp2961
Vroletype
p2962
V00
p2963
sV_id
p2964
g14
(g15
g16
NtRp2965
S'Wt\xdc\n\xe5\xbe:\n\x96\x84\x9d\xc2'
p2966
bsVid
p2967
I91793
sVedutype
p2968
VB
sasg253
g254
((dp2969
g256
I1445
sVC
I1
sVB
I66
sVE
I1
sVD
I1
sS'H'
I1
stRp2970
sa(dp2971
g3
I11824255
sg4
I1027
sg5
V1622334
p2972
sg7
VB
sg8
(lp2973
I-1
a(dp2974
Vroletype
p2975
V00
p2976
sV_id
p2977
g14
(g15
g16
NtRp2978
S'Wt\xdc\x07\xe5\xbe:\n\x96\x84\x87T'
p2979
bsVid
p2980
I86051
sVedutype
p2981
VB
sasg253
g254
((dp2982
VB
I1
sg256
I1023
stRp2983
sa(dp2984
g3
I11824255
sg4
I1323
sg5
V1624403
p2985
sg7
VB
sg8
(lp2986
I-1
a(dp2987
Vroletype
p2988
V00
p2989
sV_id
p2990
g14
(g15
g16
NtRp2991
S'Wt\xdb\xf5\xe5\xbe:\n\x96\x83\xfb\x19'
p2992
bsVid
p2993
I49966
sVedutype
p2994
VB
sa(dp2995
Vroletype
p2996
V00
p2997
sV_id
p2998
g14
(g15
g16
NtRp2999
S'Wt\xdc\x02\xe5\xbe:\n\x96\x84X]'
p3000
bsVid
p3001
I74021
sVedutype
p3002
VB
sa(dp3003
Vroletype
p3004
V00
p3005
sV_id
p3006
g14
(g15
g16
NtRp3007
S'Wt\xdc\x02\xe5\xbe:\n\x96\x84Y='
p3008
bsVid
p3009
I74245
sVedutype
p3010
VB
sa(dp3011
Vroletype
p3012
V00
p3013
sV_id
p3014
g14
(g15
g16
NtRp3015
S'Wt\xdc\x02\xe5\xbe:\n\x96\x84\\J'
p3016
bsVid
p3017
I75028
sVedutype
p3018
VB
sa(dp3019
Vroletype
p3020
V00
p3021
sV_id
p3022
g14
(g15
g16
NtRp3023
S'Wt\xdc\x04\xe5\xbe:\n\x96\x84r\x85'
p3024
bsVid
p3025
I80720
sVedutype
p3026
VB
sag2585
ag21
ag662
ag2609
a(dp3027
Vroletype
p3028
V00
p3029
sV_id
p3030
g14
(g15
g16
NtRp3031
S'Wt\xdc\x05\xe5\xbe:\n\x96\x84z\x88'
p3032
bsVid
p3033
I82772
sVedutype
p3034
VB
sa(dp3035
Vroletype
p3036
V00
p3037
sV_id
p3038
g14
(g15
g16
NtRp3039
S'Wt\xdc\x05\xe5\xbe:\n\x96\x84z\x9a'
p3040
bsVid
p3041
I82790
sVedutype
p3042
VB
sag686
a(dp3043
Vroletype
p3044
V00
p3045
sV_id
p3046
g14
(g15
g16
NtRp3047
S'Wt\xdc\x06\xe5\xbe:\n\x96\x84|\x00'
p3048
bsVid
p3049
I83150
sVedutype
p3050
VB
sa(dp3051
Vroletype
p3052
V00
p3053
sV_id
p3054
g14
(g15
g16
NtRp3055
S'Wt\xdc\x06\xe5\xbe:\n\x96\x84|3'
p3056
bsVid
p3057
I83201
sVedutype
p3058
VB
sa(dp3059
Vroletype
p3060
V00
p3061
sV_id
p3062
g14
(g15
g16
NtRp3063
S'Wt\xdc\x06\xe5\xbe:\n\x96\x84|\xa0'
p3064
bsVid
p3065
I83310
sVedutype
p3066
VB
sa(dp3067
Vroletype
p3068
V00
p3069
sV_id
p3070
g14
(g15
g16
NtRp3071
S'Wt\xdc\x06\xe5\xbe:\n\x96\x84|\xd9'
p3072
bsVid
p3073
I83367
sVedutype
p3074
VB
sag1219
ag694
a(dp3075
Vroletype
p3076
V00
p3077
sV_id
p3078
g14
(g15
g16
NtRp3079
S'Wt\xdc\x06\xe5\xbe:\n\x96\x84\x82*'
p3080
bsVid
p3081
I84728
sVedutype
p3082
VB
sag710
a(dp3083
Vroletype
p3084
V00
p3085
sV_id
p3086
g14
(g15
g16
NtRp3087
S'Wt\xdc\x06\xe5\xbe:\n\x96\x84\x84='
p3088
bsVid
p3089
I85259
sVedutype
p3090
VB
sag133
a(dp3091
Vroletype
p3092
V00
p3093
sV_id
p3094
g14
(g15
g16
NtRp3095
S'Wt\xdc\x07\xe5\xbe:\n\x96\x84\x8b\xbb'
p3096
bsVid
p3097
I87178
sVedutype
p3098
VB
sa(dp3099
Vroletype
p3100
V00
p3101
sV_id
p3102
g14
(g15
g16
NtRp3103
S'Wt\xdc\x08\xe5\xbe:\n\x96\x84\x8b\xff'
p3104
bsVid
p3105
I87246
sVedutype
p3106
VB
sa(dp3107
Vroletype
p3108
V00
p3109
sV_id
p3110
g14
(g15
g16
NtRp3111
S'Wt\xdc\x08\xe5\xbe:\n\x96\x84\x8c\x80'
p3112
bsVid
p3113
I87375
sVedutype
p3114
VB
sa(dp3115
Vroletype
p3116
V00
p3117
sV_id
p3118
g14
(g15
g16
NtRp3119
S'Wt\xdc\x08\xe5\xbe:\n\x96\x84\x8e\x82'
p3120
bsVid
p3121
I87889
sVedutype
p3122
VB
sag2737
a(dp3123
Vroletype
p3124
V00
p3125
sV_id
p3126
g14
(g15
g16
NtRp3127
S'Wt\xdc\x08\xe5\xbe:\n\x96\x84\x8f\xa4'
p3128
bsVid
p3129
I88179
sVedutype
p3130
VB
sa(dp3131
Vroletype
p3132
V00
p3133
sV_id
p3134
g14
(g15
g16
NtRp3135
S'Wt\xdc\x08\xe5\xbe:\n\x96\x84\x90\x15'
p3136
bsVid
p3137
I88292
sVedutype
p3138
VB
sa(dp3139
Vroletype
p3140
V00
p3141
sV_id
p3142
g14
(g15
g16
NtRp3143
S'Wt\xdc\x08\xe5\xbe:\n\x96\x84\x90^'
p3144
bsVid
p3145
I88365
sVedutype
p3146
VB
sa(dp3147
Vroletype
p3148
V00
p3149
sV_id
p3150
g14
(g15
g16
NtRp3151
S'Wt\xdc\t\xe5\xbe:\n\x96\x84\x93n'
p3152
bsVid
p3153
I89149
sVedutype
p3154
VB
sa(dp3155
Vroletype
p3156
V00
p3157
sV_id
p3158
g14
(g15
g16
NtRp3159
S'Wt\xdc\t\xe5\xbe:\n\x96\x84\x96\xee'
p3160
bsVid
p3161
I90045
sVedutype
p3162
VB
sa(dp3163
Vroletype
p3164
V00
p3165
sV_id
p3166
g14
(g15
g16
NtRp3167
S'Wt\xdc\t\xe5\xbe:\n\x96\x84\x97\xde'
p3168
bsVid
p3169
I90285
sVedutype
p3170
VB
sa(dp3171
Vroletype
p3172
V00
p3173
sV_id
p3174
g14
(g15
g16
NtRp3175
S'Wt\xdc\t\xe5\xbe:\n\x96\x84\x98\xb2'
p3176
bsVid
p3177
I90497
sVedutype
p3178
VB
sa(dp3179
Vroletype
p3180
V00
p3181
sV_id
p3182
g14
(g15
g16
NtRp3183
S'Wt\xdc\n\xe5\xbe:\n\x96\x84\x9c\x13'
p3184
bsVid
p3185
I91362
sVedutype
p3186
VB
sa(dp3187
Vroletype
p3188
V00
p3189
sV_id
p3190
g14
(g15
g16
NtRp3191
S'Wt\xdc\n\xe5\xbe:\n\x96\x84\x9d\x91'
p3192
bsVid
p3193
I91744
sVedutype
p3194
VB
sag2024
ag2961
asg253
g254
((dp3195
VB
I38
sg256
I1257
stRp3196
sa(dp3197
g3
I11824255
sg4
I1403
sg5
V1633356
p3198
sg7
VB
sg8
(lp3199
I-1
ag10
ag1264
ag2132
a(dp3200
Vroletype
p3201
V00
p3202
sV_id
p3203
g14
(g15
g16
NtRp3204
S'Wt\xdc\x02\xe5\xbe:\n\x96\x84W\xee'
p3205
bsVid
p3206
I73909
sVedutype
p3207
VB
sa(dp3208
Vroletype
p3209
V00
p3210
sV_id
p3211
g14
(g15
g16
NtRp3212
S'Wt\xdc\x02\xe5\xbe:\n\x96\x84ZW'
p3213
bsVid
p3214
I74527
sVedutype
p3215
VB
sa(dp3216
Vroletype
p3217
V05
p3218
sV_id
p3219
g14
(g15
g16
NtRp3220
S'Wt\xdc\x02\xe5\xbe:\n\x96\x84Zn'
p3221
bsVid
p3222
I74550
sVedutype
p3223
VZ
sa(dp3224
Vroletype
p3225
V00
p3226
sV_id
p3227
g14
(g15
g16
NtRp3228
S'Wt\xdc\x02\xe5\xbe:\n\x96\x84[@'
p3229
bsVid
p3230
I74762
sVedutype
p3231
VB
sa(dp3232
Vroletype
p3233
V00
p3234
sV_id
p3235
g14
(g15
g16
NtRp3236
S'Wt\xdc\x02\xe5\xbe:\n\x96\x84[_'
p3237
bsVid
p3238
I74793
sVedutype
p3239
VB
sa(dp3240
Vroletype
p3241
V00
p3242
sV_id
p3243
g14
(g15
g16
NtRp3244
S'Wt\xdc\x02\xe5\xbe:\n\x96\x84[\x9c'
p3245
bsVid
p3246
I74854
sVedutype
p3247
VB
sa(dp3248
Vroletype
p3249
V00
p3250
sV_id
p3251
g14
(g15
g16
NtRp3252
S'Wt\xdc\x02\xe5\xbe:\n\x96\x84\\\x01'
p3253
bsVid
p3254
I74955
sVedutype
p3255
VB
sag2228
a(dp3256
Vroletype
p3257
V00
p3258
sV_id
p3259
g14
(g15
g16
NtRp3260
S'Wt\xdc\x04\xe5\xbe:\n\x96\x84py'
p3261
bsVid
p3262
I80196
sVedutype
p3263
VB
sa(dp3264
Vroletype
p3265
V00
p3266
sV_id
p3267
g14
(g15
g16
NtRp3268
S'Wt\xdc\x04\xe5\xbe:\n\x96\x84q\xf1'
p3269
bsVid
p3270
I80572
sVedutype
p3271
VB
sa(dp3272
Vroletype
p3273
V00
p3274
sV_id
p3275
g14
(g15
g16
NtRp3276
S'Wt\xdc\x04\xe5\xbe:\n\x96\x84r+'
p3277
bsVid
p3278
I80630
sVedutype
p3279
VB
sa(dp3280
Vroletype
p3281
V00
p3282
sV_id
p3283
g14
(g15
g16
NtRp3284
S'Wt\xdc\x04\xe5\xbe:\n\x96\x84rs'
p3285
bsVid
p3286
I80702
sVedutype
p3287
VB
sa(dp3288
Vroletype
p3289
V12
p3290
sV_id
p3291
g14
(g15
g16
NtRp3292
S'Wt\xdc\x04\xe5\xbe:\n\x96\x84r\xa2'
p3293
bsVid
p3294
I80749
sVedutype
p3295
VB
sa(dp3296
Vroletype
p3297
V00
p3298
sV_id
p3299
g14
(g15
g16
NtRp3300
S'Wt\xdc\x05\xe5\xbe:\n\x96\x84sW'
p3301
bsVid
p3302
I80931
sVedutype
p3303
VB
sa(dp3304
Vroletype
p3305
V05
p3306
sV_id
p3307
g14
(g15
g16
NtRp3308
S'Wt\xdc\x05\xe5\xbe:\n\x96\x84t\x18'
p3309
bsVid
p3310
I81124
sVedutype
p3311
VF
sag1672
ag29
a(dp3312
Vroletype
p3313
V00
p3314
sV_id
p3315
g14
(g15
g16
NtRp3316
S'Wt\xdc\x05\xe5\xbe:\n\x96\x84t\xcd'
p3317
bsVid
p3318
I81305
sVedutype
p3319
VB
sag1704
ag553
a(dp3320
Vroletype
p3321
V00
p3322
sV_id
p3323
g14
(g15
g16
NtRp3324
S'Wt\xdc\x05\xe5\xbe:\n\x96\x84u\x0c'
p3325
bsVid
p3326
I81368
sVedutype
p3327
VB
sa(dp3328
Vroletype
p3329
V00
p3330
sV_id
p3331
g14
(g15
g16
NtRp3332
S'Wt\xdc\x05\xe5\xbe:\n\x96\x84u\x1e'
p3333
bsVid
p3334
I81386
sVedutype
p3335
VB
sa(dp3336
Vroletype
p3337
V00
p3338
sV_id
p3339
g14
(g15
g16
NtRp3340
S'Wt\xdc\x05\xe5\xbe:\n\x96\x84u\xb1'
p3341
bsVid
p3342
I81533
sVedutype
p3343
VB
sa(dp3344
Vroletype
p3345
V00
p3346
sV_id
p3347
g14
(g15
g16
NtRp3348
S'Wt\xdc\x05\xe5\xbe:\n\x96\x84vx'
p3349
bsVid
p3350
I81732
sVedutype
p3351
VB
sag561
ag2444
ag1832
ag1179
a(dp3352
Vroletype
p3353
V00
p3354
sV_id
p3355
g14
(g15
g16
NtRp3356
S'Wt\xdc\x05\xe5\xbe:\n\x96\x84x5'
p3357
bsVid
p3358
I82177
sVedutype
p3359
VB
sa(dp3360
Vroletype
p3361
V00
p3362
sV_id
p3363
g14
(g15
g16
NtRp3364
S'Wt\xdc\x05\xe5\xbe:\n\x96\x84x@'
p3365
bsVid
p3366
I82188
sVedutype
p3367
VB
sa(dp3368
Vroletype
p3369
V00
p3370
sV_id
p3371
g14
(g15
g16
NtRp3372
S'Wt\xdc\x05\xe5\xbe:\n\x96\x84xa'
p3373
bsVid
p3374
I82221
sVedutype
p3375
VB
sa(dp3376
Vroletype
p3377
V00
p3378
sV_id
p3379
g14
(g15
g16
NtRp3380
S'Wt\xdc\x05\xe5\xbe:\n\x96\x84xb'
p3381
bsVid
p3382
I82222
sVedutype
p3383
VB
sa(dp3384
Vroletype
p3385
V00
p3386
sV_id
p3387
g14
(g15
g16
NtRp3388
S'Wt\xdc\x05\xe5\xbe:\n\x96\x84xt'
p3389
bsVid
p3390
I82240
sVedutype
p3391
VB
sa(dp3392
Vroletype
p3393
V00
p3394
sV_id
p3395
g14
(g15
g16
NtRp3396
S'Wt\xdc\x05\xe5\xbe:\n\x96\x84x\xa5'
p3397
bsVid
p3398
I82289
sVedutype
p3399
VB
sa(dp3400
Vroletype
p3401
V00
p3402
sV_id
p3403
g14
(g15
g16
NtRp3404
S'Wt\xdc\x05\xe5\xbe:\n\x96\x84x\xbf'
p3405
bsVid
p3406
I82315
sVedutype
p3407
VB
sa(dp3408
Vroletype
p3409
V00
p3410
sV_id
p3411
g14
(g15
g16
NtRp3412
S'Wt\xdc\x05\xe5\xbe:\n\x96\x84x\xc1'
p3413
bsVid
p3414
I82317
sVedutype
p3415
VB
sag2601
a(dp3416
Vroletype
p3417
V00
p3418
sV_id
p3419
g14
(g15
g16
NtRp3420
S'Wt\xdc\x05\xe5\xbe:\n\x96\x84y\x8d'
p3421
bsVid
p3422
I82521
sVedutype
p3423
VB
sa(dp3424
Vroletype
p3425
V00
p3426
sV_id
p3427
g14
(g15
g16
NtRp3428
S'Wt\xdc\x05\xe5\xbe:\n\x96\x84y\x9e'
p3429
bsVid
p3430
I82538
sVedutype
p3431
VB
sag2609
a(dp3432
Vroletype
p3433
V00
p3434
sV_id
p3435
g14
(g15
g16
NtRp3436
S'Wt\xdc\x05\xe5\xbe:\n\x96\x84z\x8b'
p3437
bsVid
p3438
I82775
sVedutype
p3439
VB
sa(dp3440
Vroletype
p3441
V03
p3442
sV_id
p3443
g14
(g15
g16
NtRp3444
S'Wt\xdc\x05\xe5\xbe:\n\x96\x84{!'
p3445
bsVid
p3446
I82925
sVedutype
p3447
VB
sag686
a(dp3448
Vroletype
p3449
V00
p3450
sV_id
p3451
g14
(g15
g16
NtRp3452
S'Wt\xdc\x06\xe5\xbe:\n\x96\x84|p'
p3453
bsVid
p3454
I83262
sVedutype
p3455
VB
sa(dp3456
Vroletype
p3457
V00
p3458
sV_id
p3459
g14
(g15
g16
NtRp3460
S'Wt\xdc\x06\xe5\xbe:\n\x96\x84~\x84'
p3461
bsVid
p3462
I83794
sVedutype
p3463
VB
sa(dp3464
Vroletype
p3465
V00
p3466
sV_id
p3467
g14
(g15
g16
NtRp3468
S'Wt\xdc\x06\xe5\xbe:\n\x96\x84\x80\x1f'
p3469
bsVid
p3470
I84205
sVedutype
p3471
VB
sa(dp3472
Vroletype
p3473
V00
p3474
sV_id
p3475
g14
(g15
g16
NtRp3476
S'Wt\xdc\x06\xe5\xbe:\n\x96\x84\x806'
p3477
bsVid
p3478
I84228
sVedutype
p3479
VB
sa(dp3480
Vroletype
p3481
V04
p3482
sV_id
p3483
g14
(g15
g16
NtRp3484
S'Wt\xdc\x06\xe5\xbe:\n\x96\x84\x80`'
p3485
bsVid
p3486
I84270
sVedutype
p3487
VB
sa(dp3488
Vroletype
p3489
V00
p3490
sV_id
p3491
g14
(g15
g16
NtRp3492
S'Wt\xdc\x06\xe5\xbe:\n\x96\x84\x81\x16'
p3493
bsVid
p3494
I84452
sVedutype
p3495
VB
sag93
ag585
a(dp3496
Vroletype
p3497
V00
p3498
sV_id
p3499
g14
(g15
g16
NtRp3500
S'Wt\xdc\x06\xe5\xbe:\n\x96\x84\x81\xe5'
p3501
bsVid
p3502
I84659
sVedutype
p3503
VB
sa(dp3504
Vroletype
p3505
V00
p3506
sV_id
p3507
g14
(g15
g16
NtRp3508
S'Wt\xdc\x06\xe5\xbe:\n\x96\x84\x83\x11'
p3509
bsVid
p3510
I84959
sVedutype
p3511
VB
sa(dp3512
Vroletype
p3513
V00
p3514
sV_id
p3515
g14
(g15
g16
NtRp3516
S'Wt\xdc\x06\xe5\xbe:\n\x96\x84\x83\x1c'
p3517
bsVid
p3518
I84970
sVedutype
p3519
VB
sag593
a(dp3520
Vroletype
p3521
V00
p3522
sV_id
p3523
g14
(g15
g16
NtRp3524
S'Wt\xdc\x06\xe5\xbe:\n\x96\x84\x83\xc4'
p3525
bsVid
p3526
I85138
sVedutype
p3527
VB
sa(dp3528
Vroletype
p3529
V00
p3530
sV_id
p3531
g14
(g15
g16
NtRp3532
S'Wt\xdc\x06\xe5\xbe:\n\x96\x84\x84r'
p3533
bsVid
p3534
I85312
sVedutype
p3535
VB
sa(dp3536
Vroletype
p3537
V00
p3538
sV_id
p3539
g14
(g15
g16
NtRp3540
S'Wt\xdc\x07\xe5\xbe:\n\x96\x84\x86\x0f'
p3541
bsVid
p3542
I85726
sVedutype
p3543
VB
sa(dp3544
Vroletype
p3545
V00
p3546
sV_id
p3547
g14
(g15
g16
NtRp3548
S'Wt\xdc\x07\xe5\xbe:\n\x96\x84\x86\xa7'
p3549
bsVid
p3550
I85878
sVedutype
p3551
VC
sag601
a(dp3552
Vroletype
p3553
V00
p3554
sV_id
p3555
g14
(g15
g16
NtRp3556
S'Wt\xdc\x07\xe5\xbe:\n\x96\x84\x86\xe5'
p3557
bsVid
p3558
I85940
sVedutype
p3559
VB
sa(dp3560
Vroletype
p3561
V00
p3562
sV_id
p3563
g14
(g15
g16
NtRp3564
S'Wt\xdc\x07\xe5\xbe:\n\x96\x84\x86\xf0'
p3565
bsVid
p3566
I85951
sVedutype
p3567
VB
sa(dp3568
Vroletype
p3569
V00
p3570
sV_id
p3571
g14
(g15
g16
NtRp3572
S'Wt\xdc\x07\xe5\xbe:\n\x96\x84\x87\x17'
p3573
bsVid
p3574
I85990
sVedutype
p3575
VB
sag2974
a(dp3576
Vroletype
p3577
V00
p3578
sV_id
p3579
g14
(g15
g16
NtRp3580
S'Wt\xdc\x07\xe5\xbe:\n\x96\x84\x87a'
p3581
bsVid
p3582
I86064
sVedutype
p3583
VB
sa(dp3584
Vroletype
p3585
V00
p3586
sV_id
p3587
g14
(g15
g16
NtRp3588
S'Wt\xdc\x07\xe5\xbe:\n\x96\x84\x87o'
p3589
bsVid
p3590
I86078
sVedutype
p3591
VB
sa(dp3592
Vroletype
p3593
V00
p3594
sV_id
p3595
g14
(g15
g16
NtRp3596
S'Wt\xdc\x07\xe5\xbe:\n\x96\x84\x89+'
p3597
bsVid
p3598
I86522
sVedutype
p3599
VB
sag133
a(dp3600
Vroletype
p3601
V00
p3602
sV_id
p3603
g14
(g15
g16
NtRp3604
S'Wt\xdc\x08\xe5\xbe:\n\x96\x84\x8eT'
p3605
bsVid
p3606
I87843
sVedutype
p3607
VB
sasg253
g254
((dp3608
VC
I1
sVB
I67
sg256
I1263
sVD
I1
sVF
I2
sVZ
I1
stRp3609
sa(dp3610
g3
I-1
sg4
I1005
sg5
V1662039
p3611
sg7
VC
sg8
(lp3612
I-1
ag10
a(dp3613
Vroletype
p3614
V00
p3615
sV_id
p3616
g14
(g15
g16
NtRp3617
S'Wt\xdb\xf6\xe5\xbe:\n\x96\x84\x05&'
p3618
bsVid
p3619
I52620
sVedutype
p3620
VB
sa(dp3621
Vroletype
p3622
V00
p3623
sV_id
p3624
g14
(g15
g16
NtRp3625
S'Wt\xdc\x01\xe5\xbe:\n\x96\x84T\xef'
p3626
bsVid
p3627
I73137
sVedutype
p3628
VC
sa(dp3629
Vroletype
p3630
V00
p3631
sV_id
p3632
g14
(g15
g16
NtRp3633
S'Wt\xdc\x02\xe5\xbe:\n\x96\x84Wo'
p3634
bsVid
p3635
I73782
sVedutype
p3636
VB
sa(dp3637
Vroletype
p3638
V00
p3639
sV_id
p3640
g14
(g15
g16
NtRp3641
S'Wt\xdc\x02\xe5\xbe:\n\x96\x84Yn'
p3642
bsVid
p3643
I74294
sVedutype
p3644
VB
sag630
a(dp3645
Vroletype
p3646
V00
p3647
sV_id
p3648
g14
(g15
g16
NtRp3649
S'Wt\xdc\x05\xe5\xbe:\n\x96\x84s/'
p3650
bsVid
p3651
I80890
sVedutype
p3652
VB
sa(dp3653
Vroletype
p3654
V00
p3655
sV_id
p3656
g14
(g15
g16
NtRp3657
S'Wt\xdc\x05\xe5\xbe:\n\x96\x84vs'
p3658
bsVid
p3659
I81727
sVedutype
p3660
VB
sa(dp3661
Vroletype
p3662
V00
p3663
sV_id
p3664
g14
(g15
g16
NtRp3665
S'Wt\xdc\x06\xe5\xbe:\n\x96\x84|\xe3'
p3666
bsVid
p3667
I83377
sVedutype
p3668
VB
sa(dp3669
Vroletype
p3670
V00
p3671
sV_id
p3672
g14
(g15
g16
NtRp3673
S'Wt\xdc\x06\xe5\xbe:\n\x96\x84\x81\xc8'
p3674
bsVid
p3675
I84630
sVedutype
p3676
VB
sa(dp3677
Vroletype
p3678
V00
p3679
sV_id
p3680
g14
(g15
g16
NtRp3681
S'Wt\xdc\x06\xe5\xbe:\n\x96\x84\x81\xfb'
p3682
bsVid
p3683
I84681
sVedutype
p3684
VB
sa(dp3685
Vroletype
p3686
V00
p3687
sV_id
p3688
g14
(g15
g16
NtRp3689
S'Wt\xdc\x06\xe5\xbe:\n\x96\x84\x83\xf8'
p3690
bsVid
p3691
I85190
sVedutype
p3692
VB
sa(dp3693
Vroletype
p3694
V00
p3695
sV_id
p3696
g14
(g15
g16
NtRp3697
S'Wt\xdc\x06\xe5\xbe:\n\x96\x84\x83\xf9'
p3698
bsVid
p3699
I85191
sVedutype
p3700
VB
sa(dp3701
Vroletype
p3702
V00
p3703
sV_id
p3704
g14
(g15
g16
NtRp3705
S'Wt\xdc\x06\xe5\xbe:\n\x96\x84\x84\x81'
p3706
bsVid
p3707
I85327
sVedutype
p3708
VB
sa(dp3709
Vroletype
p3710
V00
p3711
sV_id
p3712
g14
(g15
g16
NtRp3713
S'Wt\xdc\x07\xe5\xbe:\n\x96\x84\x85G'
p3714
bsVid
p3715
I85525
sVedutype
p3716
VB
sa(dp3717
Vroletype
p3718
V00
p3719
sV_id
p3720
g14
(g15
g16
NtRp3721
S'Wt\xdc\x07\xe5\xbe:\n\x96\x84\x86>'
p3722
bsVid
p3723
I85773
sVedutype
p3724
VB
sa(dp3725
Vroletype
p3726
V00
p3727
sV_id
p3728
g14
(g15
g16
NtRp3729
S'Wt\xdc\x07\xe5\xbe:\n\x96\x84\x86\x80'
p3730
bsVid
p3731
I85839
sVedutype
p3732
VB
sa(dp3733
Vroletype
p3734
V00
p3735
sV_id
p3736
g14
(g15
g16
NtRp3737
S'Wt\xdc\x07\xe5\xbe:\n\x96\x84\x86\xc3'
p3738
bsVid
p3739
I85906
sVedutype
p3740
VB
sa(dp3741
Vroletype
p3742
V00
p3743
sV_id
p3744
g14
(g15
g16
NtRp3745
S'Wt\xdc\x07\xe5\xbe:\n\x96\x84\x86\xc5'
p3746
bsVid
p3747
I85908
sVedutype
p3748
VB
sa(dp3749
Vroletype
p3750
V00
p3751
sV_id
p3752
g14
(g15
g16
NtRp3753
S'Wt\xdc\x07\xe5\xbe:\n\x96\x84\x86\xde'
p3754
bsVid
p3755
I85933
sVedutype
p3756
VB
sa(dp3757
Vroletype
p3758
V00
p3759
sV_id
p3760
g14
(g15
g16
NtRp3761
S'Wt\xdc\x07\xe5\xbe:\n\x96\x84\x86\xef'
p3762
bsVid
p3763
I85950
sVedutype
p3764
VB
sa(dp3765
Vroletype
p3766
V00
p3767
sV_id
p3768
g14
(g15
g16
NtRp3769
S'Wt\xdc\x07\xe5\xbe:\n\x96\x84\x88)'
p3770
bsVid
p3771
I86264
sVedutype
p3772
VB
sa(dp3773
Vroletype
p3774
V00
p3775
sV_id
p3776
g14
(g15
g16
NtRp3777
S'Wt\xdc\x07\xe5\xbe:\n\x96\x84\x88\xe6'
p3778
bsVid
p3779
I86453
sVedutype
p3780
VB
sa(dp3781
Vroletype
p3782
V00
p3783
sV_id
p3784
g14
(g15
g16
NtRp3785
S'Wt\xdc\x07\xe5\xbe:\n\x96\x84\x89I'
p3786
bsVid
p3787
I86552
sVedutype
p3788
VB
sa(dp3789
Vroletype
p3790
V00
p3791
sV_id
p3792
g14
(g15
g16
NtRp3793
S'Wt\xdc\x07\xe5\xbe:\n\x96\x84\x8at'
p3794
bsVid
p3795
I86851
sVedutype
p3796
VC
sa(dp3797
Vroletype
p3798
V00
p3799
sV_id
p3800
g14
(g15
g16
NtRp3801
S'Wt\xdc\x07\xe5\xbe:\n\x96\x84\x8a\xa0'
p3802
bsVid
p3803
I86895
sVedutype
p3804
VB
sa(dp3805
Vroletype
p3806
V00
p3807
sV_id
p3808
g14
(g15
g16
NtRp3809
S'Wt\xdc\x07\xe5\xbe:\n\x96\x84\x8a\xaf'
p3810
bsVid
p3811
I86910
sVedutype
p3812
VC
sag2697
a(dp3813
Vroletype
p3814
V00
p3815
sV_id
p3816
g14
(g15
g16
NtRp3817
S'Wt\xdc\x07\xe5\xbe:\n\x96\x84\x8b\xcf'
p3818
bsVid
p3819
I87198
sVedutype
p3820
VC
sa(dp3821
Vroletype
p3822
V00
p3823
sV_id
p3824
g14
(g15
g16
NtRp3825
S'Wt\xdc\x08\xe5\xbe:\n\x96\x84\x8b\xf9'
p3826
bsVid
p3827
I87240
sVedutype
p3828
VB
sa(dp3829
Vroletype
p3830
V00
p3831
sV_id
p3832
g14
(g15
g16
NtRp3833
S'Wt\xdc\x08\xe5\xbe:\n\x96\x84\x8b\xfb'
p3834
bsVid
p3835
I87242
sVedutype
p3836
VB
sa(dp3837
Vroletype
p3838
V00
p3839
sV_id
p3840
g14
(g15
g16
NtRp3841
S'Wt\xdc\x08\xe5\xbe:\n\x96\x84\x8cS'
p3842
bsVid
p3843
I87330
sVedutype
p3844
VB
sa(dp3845
Vroletype
p3846
V00
p3847
sV_id
p3848
g14
(g15
g16
NtRp3849
S'Wt\xdc\x08\xe5\xbe:\n\x96\x84\x8d\x16'
p3850
bsVid
p3851
I87525
sVedutype
p3852
VB
sa(dp3853
Vroletype
p3854
V00
p3855
sV_id
p3856
g14
(g15
g16
NtRp3857
S'Wt\xdc\x08\xe5\xbe:\n\x96\x84\x8d\xd3'
p3858
bsVid
p3859
I87714
sVedutype
p3860
VC
sa(dp3861
Vroletype
p3862
V00
p3863
sV_id
p3864
g14
(g15
g16
NtRp3865
S'Wt\xdc\x08\xe5\xbe:\n\x96\x84\x8e\x1f'
p3866
bsVid
p3867
I87790
sVedutype
p3868
VC
sag742
a(dp3869
Vroletype
p3870
V00
p3871
sV_id
p3872
g14
(g15
g16
NtRp3873
S'Wt\xdc\x08\xe5\xbe:\n\x96\x84\x8e\x8d'
p3874
bsVid
p3875
I87900
sVedutype
p3876
VB
sa(dp3877
Vroletype
p3878
V00
p3879
sV_id
p3880
g14
(g15
g16
NtRp3881
S'Wt\xdc\x08\xe5\xbe:\n\x96\x84\x8f/'
p3882
bsVid
p3883
I88062
sVedutype
p3884
VB
sa(dp3885
Vroletype
p3886
V00
p3887
sV_id
p3888
g14
(g15
g16
NtRp3889
S'Wt\xdc\x08\xe5\xbe:\n\x96\x84\x8f`'
p3890
bsVid
p3891
I88111
sVedutype
p3892
VB
sa(dp3893
Vroletype
p3894
V00
p3895
sV_id
p3896
g14
(g15
g16
NtRp3897
S'Wt\xdc\x08\xe5\xbe:\n\x96\x84\x8f\xb6'
p3898
bsVid
p3899
I88197
sVedutype
p3900
VB
sag758
a(dp3901
Vroletype
p3902
V00
p3903
sV_id
p3904
g14
(g15
g16
NtRp3905
S'Wt\xdc\x08\xe5\xbe:\n\x96\x84\x90\xe0'
p3906
bsVid
p3907
I88495
sVedutype
p3908
VB
sa(dp3909
Vroletype
p3910
V00
p3911
sV_id
p3912
g14
(g15
g16
NtRp3913
S'Wt\xdc\x08\xe5\xbe:\n\x96\x84\x90\xe4'
p3914
bsVid
p3915
I88499
sVedutype
p3916
VB
sa(dp3917
Vroletype
p3918
V00
p3919
sV_id
p3920
g14
(g15
g16
NtRp3921
S'Wt\xdc\x08\xe5\xbe:\n\x96\x84\x90\xe9'
p3922
bsVid
p3923
I88504
sVedutype
p3924
VB
sa(dp3925
Vroletype
p3926
V00
p3927
sV_id
p3928
g14
(g15
g16
NtRp3929
S'Wt\xdc\x08\xe5\xbe:\n\x96\x84\x90\xec'
p3930
bsVid
p3931
I88507
sVedutype
p3932
VB
sa(dp3933
Vroletype
p3934
V00
p3935
sV_id
p3936
g14
(g15
g16
NtRp3937
S'Wt\xdc\x08\xe5\xbe:\n\x96\x84\x90\xf8'
p3938
bsVid
p3939
I88519
sVedutype
p3940
VB
sa(dp3941
Vroletype
p3942
V00
p3943
sV_id
p3944
g14
(g15
g16
NtRp3945
S'Wt\xdc\x08\xe5\xbe:\n\x96\x84\x91G'
p3946
bsVid
p3947
I88598
sVedutype
p3948
VB
sa(dp3949
Vroletype
p3950
V00
p3951
sV_id
p3952
g14
(g15
g16
NtRp3953
S'Wt\xdc\x08\xe5\xbe:\n\x96\x84\x91e'
p3954
bsVid
p3955
I88628
sVedutype
p3956
VB
sa(dp3957
Vroletype
p3958
V00
p3959
sV_id
p3960
g14
(g15
g16
NtRp3961
S'Wt\xdc\x08\xe5\xbe:\n\x96\x84\x91\x9d'
p3962
bsVid
p3963
I88684
sVedutype
p3964
VB
sa(dp3965
Vroletype
p3966
V00
p3967
sV_id
p3968
g14
(g15
g16
NtRp3969
S'Wt\xdc\x08\xe5\xbe:\n\x96\x84\x91\xa4'
p3970
bsVid
p3971
I88691
sVedutype
p3972
VB
sa(dp3973
Vroletype
p3974
V00
p3975
sV_id
p3976
g14
(g15
g16
NtRp3977
S'Wt\xdc\x08\xe5\xbe:\n\x96\x84\x92{'
p3978
bsVid
p3979
I88906
sVedutype
p3980
VC
sa(dp3981
Vroletype
p3982
V03
p3983
sV_id
p3984
g14
(g15
g16
NtRp3985
S'Wt\xdc\x08\xe5\xbe:\n\x96\x84\x92\xab'
p3986
bsVid
p3987
I88954
sVedutype
p3988
VB
sa(dp3989
Vroletype
p3990
V00
p3991
sV_id
p3992
g14
(g15
g16
NtRp3993
S'Wt\xdc\t\xe5\xbe:\n\x96\x84\x93\x16'
p3994
bsVid
p3995
I89061
sVedutype
p3996
VB
sa(dp3997
Vroletype
p3998
V00
p3999
sV_id
p4000
g14
(g15
g16
NtRp4001
S'Wt\xdc\t\xe5\xbe:\n\x96\x84\x93\xc6'
p4002
bsVid
p4003
I89237
sVedutype
p4004
VC
sa(dp4005
Vroletype
p4006
V00
p4007
sV_id
p4008
g14
(g15
g16
NtRp4009
S'Wt\xdc\t\xe5\xbe:\n\x96\x84\x93\xca'
p4010
bsVid
p4011
I89241
sVedutype
p4012
VC
sa(dp4013
Vroletype
p4014
V00
p4015
sV_id
p4016
g14
(g15
g16
NtRp4017
S'Wt\xdc\t\xe5\xbe:\n\x96\x84\x94h'
p4018
bsVid
p4019
I89399
sVedutype
p4020
VC
sa(dp4021
Vroletype
p4022
V00
p4023
sV_id
p4024
g14
(g15
g16
NtRp4025
S'Wt\xdc\t\xe5\xbe:\n\x96\x84\x94}'
p4026
bsVid
p4027
I89420
sVedutype
p4028
VB
sa(dp4029
Vroletype
p4030
V00
p4031
sV_id
p4032
g14
(g15
g16
NtRp4033
S'Wt\xdc\t\xe5\xbe:\n\x96\x84\x953'
p4034
bsVid
p4035
I89602
sVedutype
p4036
VB
sa(dp4037
Vroletype
p4038
V00
p4039
sV_id
p4040
g14
(g15
g16
NtRp4041
S'Wt\xdc\t\xe5\xbe:\n\x96\x84\x95Z'
p4042
bsVid
p4043
I89641
sVedutype
p4044
VB
sa(dp4045
Vroletype
p4046
V00
p4047
sV_id
p4048
g14
(g15
g16
NtRp4049
S'Wt\xdc\t\xe5\xbe:\n\x96\x84\x95o'
p4050
bsVid
p4051
I89662
sVedutype
p4052
VB
sa(dp4053
Vroletype
p4054
V00
p4055
sV_id
p4056
g14
(g15
g16
NtRp4057
S'Wt\xdc\t\xe5\xbe:\n\x96\x84\x95\xef'
p4058
bsVid
p4059
I89790
sVedutype
p4060
VB
sa(dp4061
Vroletype
p4062
V00
p4063
sV_id
p4064
g14
(g15
g16
NtRp4065
S'Wt\xdc\t\xe5\xbe:\n\x96\x84\x96\x1e'
p4066
bsVid
p4067
I89837
sVedutype
p4068
VC
sa(dp4069
Vroletype
p4070
V00
p4071
sV_id
p4072
g14
(g15
g16
NtRp4073
S'Wt\xdc\t\xe5\xbe:\n\x96\x84\x96X'
p4074
bsVid
p4075
I89895
sVedutype
p4076
VB
sa(dp4077
Vroletype
p4078
V00
p4079
sV_id
p4080
g14
(g15
g16
NtRp4081
S'Wt\xdc\t\xe5\xbe:\n\x96\x84\x97\x1d'
p4082
bsVid
p4083
I90092
sVedutype
p4084
VB
sa(dp4085
Vroletype
p4086
V00
p4087
sV_id
p4088
g14
(g15
g16
NtRp4089
S'Wt\xdc\t\xe5\xbe:\n\x96\x84\x977'
p4090
bsVid
p4091
I90118
sVedutype
p4092
VB
sa(dp4093
Vroletype
p4094
V00
p4095
sV_id
p4096
g14
(g15
g16
NtRp4097
S'Wt\xdc\t\xe5\xbe:\n\x96\x84\x979'
p4098
bsVid
p4099
I90120
sVedutype
p4100
VB
sa(dp4101
Vroletype
p4102
V00
p4103
sV_id
p4104
g14
(g15
g16
NtRp4105
S'Wt\xdc\t\xe5\xbe:\n\x96\x84\x97:'
p4106
bsVid
p4107
I90121
sVedutype
p4108
VB
sa(dp4109
Vroletype
p4110
V00
p4111
sV_id
p4112
g14
(g15
g16
NtRp4113
S'Wt\xdc\t\xe5\xbe:\n\x96\x84\x97T'
p4114
bsVid
p4115
I90147
sVedutype
p4116
VB
sa(dp4117
Vroletype
p4118
V00
p4119
sV_id
p4120
g14
(g15
g16
NtRp4121
S'Wt\xdc\t\xe5\xbe:\n\x96\x84\x97X'
p4122
bsVid
p4123
I90151
sVedutype
p4124
VB
sa(dp4125
Vroletype
p4126
V00
p4127
sV_id
p4128
g14
(g15
g16
NtRp4129
S'Wt\xdc\t\xe5\xbe:\n\x96\x84\x97\xee'
p4130
bsVid
p4131
I90301
sVedutype
p4132
VB
sa(dp4133
Vroletype
p4134
V00
p4135
sV_id
p4136
g14
(g15
g16
NtRp4137
S'Wt\xdc\t\xe5\xbe:\n\x96\x84\x98u'
p4138
bsVid
p4139
I90436
sVedutype
p4140
VC
sa(dp4141
Vroletype
p4142
V00
p4143
sV_id
p4144
g14
(g15
g16
NtRp4145
S'Wt\xdc\t\xe5\xbe:\n\x96\x84\x98\x88'
p4146
bsVid
p4147
I90455
sVedutype
p4148
VB
sa(dp4149
Vroletype
p4150
V00
p4151
sV_id
p4152
g14
(g15
g16
NtRp4153
S'Wt\xdc\t\xe5\xbe:\n\x96\x84\x98\xfd'
p4154
bsVid
p4155
I90572
sVedutype
p4156
VB
sa(dp4157
Vroletype
p4158
V00
p4159
sV_id
p4160
g14
(g15
g16
NtRp4161
S'Wt\xdc\t\xe5\xbe:\n\x96\x84\x99\xad'
p4162
bsVid
p4163
I90748
sVedutype
p4164
VB
sa(dp4165
Vroletype
p4166
V00
p4167
sV_id
p4168
g14
(g15
g16
NtRp4169
S'Wt\xdc\t\xe5\xbe:\n\x96\x84\x9a\x1b'
p4170
bsVid
p4171
I90858
sVedutype
p4172
VB
sa(dp4173
Vroletype
p4174
V00
p4175
sV_id
p4176
g14
(g15
g16
NtRp4177
S'Wt\xdc\t\xe5\xbe:\n\x96\x84\x9a\x88'
p4178
bsVid
p4179
I90967
sVedutype
p4180
VB
sa(dp4181
Vroletype
p4182
V00
p4183
sV_id
p4184
g14
(g15
g16
NtRp4185
S'Wt\xdc\t\xe5\xbe:\n\x96\x84\x9a\xcf'
p4186
bsVid
p4187
I91038
sVedutype
p4188
VB
sag894
a(dp4189
Vroletype
p4190
V00
p4191
sV_id
p4192
g14
(g15
g16
NtRp4193
S'Wt\xdc\t\xe5\xbe:\n\x96\x84\x9a\xf1'
p4194
bsVid
p4195
I91072
sVedutype
p4196
VB
sa(dp4197
Vroletype
p4198
V00
p4199
sV_id
p4200
g14
(g15
g16
NtRp4201
S'Wt\xdc\n\xe5\xbe:\n\x96\x84\x9b\xa6'
p4202
bsVid
p4203
I91253
sVedutype
p4204
VB
sa(dp4205
Vroletype
p4206
V00
p4207
sV_id
p4208
g14
(g15
g16
NtRp4209
S'Wt\xdc\n\xe5\xbe:\n\x96\x84\x9b\xaa'
p4210
bsVid
p4211
I91257
sVedutype
p4212
VC
sag902
a(dp4213
Vroletype
p4214
V05
p4215
sV_id
p4216
g14
(g15
g16
NtRp4217
S'Wt\xdc\n\xe5\xbe:\n\x96\x84\x9c\x17'
p4218
bsVid
p4219
I91366
sVedutype
p4220
VH
sa(dp4221
Vroletype
p4222
V00
p4223
sV_id
p4224
g14
(g15
g16
NtRp4225
S'Wt\xdc\n\xe5\xbe:\n\x96\x84\x9c"'
p4226
bsVid
p4227
I91377
sVedutype
p4228
VB
sa(dp4229
Vroletype
p4230
V00
p4231
sV_id
p4232
g14
(g15
g16
NtRp4233
S'Wt\xdc\n\xe5\xbe:\n\x96\x84\x9c\xbd'
p4234
bsVid
p4235
I91532
sVedutype
p4236
VB
sasg253
g254
((dp4237
VH
I1
sVC
I13
sVB
I70
sg256
I868
sVD
I1
stRp4238
sa(dp4239
g3
I11824263
sg4
I1261
sg5
V1662745
p4240
sg7
VC
sg8
(lp4241
I-1
ag10
ag3613
ag1256
a(dp4242
Vroletype
p4243
V00
p4244
sV_id
p4245
g14
(g15
g16
NtRp4246
S'Wt\xdc\x02\xe5\xbe:\n\x96\x84Xm'
p4247
bsVid
p4248
I74037
sVedutype
p4249
VC
sa(dp4250
Vroletype
p4251
V00
p4252
sV_id
p4253
g14
(g15
g16
NtRp4254
S'Wt\xdc\x02\xe5\xbe:\n\x96\x84X}'
p4255
bsVid
p4256
I74053
sVedutype
p4257
VB
sa(dp4258
Vroletype
p4259
V00
p4260
sV_id
p4261
g14
(g15
g16
NtRp4262
S'Wt\xdc\x02\xe5\xbe:\n\x96\x84X\xd9'
p4263
bsVid
p4264
I74145
sVedutype
p4265
VB
sa(dp4266
Vroletype
p4267
V00
p4268
sV_id
p4269
g14
(g15
g16
NtRp4270
S'Wt\xdc\x02\xe5\xbe:\n\x96\x84Y\x01'
p4271
bsVid
p4272
I74185
sVedutype
p4273
VB
sa(dp4274
Vroletype
p4275
V00
p4276
sV_id
p4277
g14
(g15
g16
NtRp4278
S'Wt\xdc\x02\xe5\xbe:\n\x96\x84Yx'
p4279
bsVid
p4280
I74304
sVedutype
p4281
VB
sa(dp4282
Vroletype
p4283
V00
p4284
sV_id
p4285
g14
(g15
g16
NtRp4286
S'Wt\xdc\x02\xe5\xbe:\n\x96\x84Y\x98'
p4287
bsVid
p4288
I74336
sVedutype
p4289
VB
sa(dp4290
Vroletype
p4291
V00
p4292
sV_id
p4293
g14
(g15
g16
NtRp4294
S'Wt\xdc\x02\xe5\xbe:\n\x96\x84Z{'
p4295
bsVid
p4296
I74563
sVedutype
p4297
VB
sa(dp4298
Vroletype
p4299
V00
p4300
sV_id
p4301
g14
(g15
g16
NtRp4302
S'Wt\xdc\x02\xe5\xbe:\n\x96\x84[?'
p4303
bsVid
p4304
I74761
sVedutype
p4305
VB
sag1512
a(dp4306
Vroletype
p4307
V00
p4308
sV_id
p4309
g14
(g15
g16
NtRp4310
S'Wt\xdc\x04\xe5\xbe:\n\x96\x84p\x93'
p4311
bsVid
p4312
I80222
sVedutype
p4313
VB
sag2340
a(dp4314
Vroletype
p4315
V00
p4316
sV_id
p4317
g14
(g15
g16
NtRp4318
S'Wt\xdc\x04\xe5\xbe:\n\x96\x84r\x80'
p4319
bsVid
p4320
I80715
sVedutype
p4321
VB
sa(dp4322
Vroletype
p4323
V00
p4324
sV_id
p4325
g14
(g15
g16
NtRp4326
S'Wt\xdc\x05\xe5\xbe:\n\x96\x84r\xda'
p4327
bsVid
p4328
I80805
sVedutype
p4329
VB
sag630
ag3296
a(dp4330
Vroletype
p4331
V00
p4332
sV_id
p4333
g14
(g15
g16
NtRp4334
S'Wt\xdc\x05\xe5\xbe:\n\x96\x84ub'
p4335
bsVid
p4336
I81454
sVedutype
p4337
VB
sa(dp4338
Vroletype
p4339
V00
p4340
sV_id
p4341
g14
(g15
g16
NtRp4342
S'Wt\xdc\x05\xe5\xbe:\n\x96\x84u\xae'
p4343
bsVid
p4344
I81530
sVedutype
p4345
VB
sa(dp4346
Vroletype
p4347
V00
p4348
sV_id
p4349
g14
(g15
g16
NtRp4350
S'Wt\xdc\x05\xe5\xbe:\n\x96\x84w\xc4'
p4351
bsVid
p4352
I82064
sVedutype
p4353
VC
sa(dp4354
Vroletype
p4355
V00
p4356
sV_id
p4357
g14
(g15
g16
NtRp4358
S'Wt\xdc\x05\xe5\xbe:\n\x96\x84z\xc6'
p4359
bsVid
p4360
I82834
sVedutype
p4361
VB
sa(dp4362
Vroletype
p4363
V00
p4364
sV_id
p4365
g14
(g15
g16
NtRp4366
S'Wt\xdc\x06\xe5\xbe:\n\x96\x84\x7f\x1a'
p4367
bsVid
p4368
I83944
sVedutype
p4369
VE
sa(dp4370
Vroletype
p4371
V00
p4372
sV_id
p4373
g14
(g15
g16
NtRp4374
S'Wt\xdc\x06\xe5\xbe:\n\x96\x84\x7f~'
p4375
bsVid
p4376
I84044
sVedutype
p4377
VC
sa(dp4378
Vroletype
p4379
V00
p4380
sV_id
p4381
g14
(g15
g16
NtRp4382
S'Wt\xdc\x06\xe5\xbe:\n\x96\x84\x7f\x87'
p4383
bsVid
p4384
I84053
sVedutype
p4385
VB
sa(dp4386
Vroletype
p4387
V00
p4388
sV_id
p4389
g14
(g15
g16
NtRp4390
S'Wt\xdc\x06\xe5\xbe:\n\x96\x84\x80C'
p4391
bsVid
p4392
I84241
sVedutype
p4393
VC
sag3669
a(dp4394
Vroletype
p4395
V00
p4396
sV_id
p4397
g14
(g15
g16
NtRp4398
S'Wt\xdc\x06\xe5\xbe:\n\x96\x84\x81\xfa'
p4399
bsVid
p4400
I84680
sVedutype
p4401
VB
sag3677
ag3693
ag3528
a(dp4402
Vroletype
p4403
V00
p4404
sV_id
p4405
g14
(g15
g16
NtRp4406
S'Wt\xdc\x07\xe5\xbe:\n\x96\x84\x84\xa7'
p4407
bsVid
p4408
I85365
sVedutype
p4409
VB
sa(dp4410
Vroletype
p4411
V00
p4412
sV_id
p4413
g14
(g15
g16
NtRp4414
S'Wt\xdc\x07\xe5\xbe:\n\x96\x84\x85%'
p4415
bsVid
p4416
I85491
sVedutype
p4417
VC
sa(dp4418
Vroletype
p4419
V00
p4420
sV_id
p4421
g14
(g15
g16
NtRp4422
S'Wt\xdc\x07\xe5\xbe:\n\x96\x84\x85u'
p4423
bsVid
p4424
I85571
sVedutype
p4425
VC
sa(dp4426
Vroletype
p4427
V00
p4428
sV_id
p4429
g14
(g15
g16
NtRp4430
S'Wt\xdc\x07\xe5\xbe:\n\x96\x84\x85\x81'
p4431
bsVid
p4432
I85583
sVedutype
p4433
VB
sa(dp4434
Vroletype
p4435
V00
p4436
sV_id
p4437
g14
(g15
g16
NtRp4438
S'Wt\xdc\x07\xe5\xbe:\n\x96\x84\x85\xd3'
p4439
bsVid
p4440
I85666
sVedutype
p4441
VB
sa(dp4442
Vroletype
p4443
V00
p4444
sV_id
p4445
g14
(g15
g16
NtRp4446
S'Wt\xdc\x07\xe5\xbe:\n\x96\x84\x86/'
p4447
bsVid
p4448
I85758
sVedutype
p4449
VC
sag3725
a(dp4450
Vroletype
p4451
V00
p4452
sV_id
p4453
g14
(g15
g16
NtRp4454
S'Wt\xdc\x07\xe5\xbe:\n\x96\x84\x86\xb3'
p4455
bsVid
p4456
I85890
sVedutype
p4457
VB
sa(dp4458
Vroletype
p4459
V00
p4460
sV_id
p4461
g14
(g15
g16
NtRp4462
S'Wt\xdc\x07\xe5\xbe:\n\x96\x84\x86\xd0'
p4463
bsVid
p4464
I85919
sVedutype
p4465
VB
sa(dp4466
Vroletype
p4467
V00
p4468
sV_id
p4469
g14
(g15
g16
NtRp4470
S'Wt\xdc\x07\xe5\xbe:\n\x96\x84\x86\xdd'
p4471
bsVid
p4472
I85932
sVedutype
p4473
VB
sa(dp4474
Vroletype
p4475
V00
p4476
sV_id
p4477
g14
(g15
g16
NtRp4478
S'Wt\xdc\x07\xe5\xbe:\n\x96\x84\x87n'
p4479
bsVid
p4480
I86077
sVedutype
p4481
VC
sa(dp4482
Vroletype
p4483
V00
p4484
sV_id
p4485
g14
(g15
g16
NtRp4486
S'Wt\xdc\x07\xe5\xbe:\n\x96\x84\x88\x1d'
p4487
bsVid
p4488
I86252
sVedutype
p4489
VB
sa(dp4490
Vroletype
p4491
V00
p4492
sV_id
p4493
g14
(g15
g16
NtRp4494
S'Wt\xdc\x07\xe5\xbe:\n\x96\x84\x88\x1e'
p4495
bsVid
p4496
I86253
sVedutype
p4497
VB
sa(dp4498
Vroletype
p4499
V00
p4500
sV_id
p4501
g14
(g15
g16
NtRp4502
S'Wt\xdc\x07\xe5\xbe:\n\x96\x84\x88"'
p4503
bsVid
p4504
I86257
sVedutype
p4505
VB
sa(dp4506
Vroletype
p4507
V00
p4508
sV_id
p4509
g14
(g15
g16
NtRp4510
S'Wt\xdc\x07\xe5\xbe:\n\x96\x84\x88$'
p4511
bsVid
p4512
I86259
sVedutype
p4513
VB
sa(dp4514
Vroletype
p4515
V00
p4516
sV_id
p4517
g14
(g15
g16
NtRp4518
S'Wt\xdc\x07\xe5\xbe:\n\x96\x84\x88('
p4519
bsVid
p4520
I86263
sVedutype
p4521
VB
sa(dp4522
Vroletype
p4523
V00
p4524
sV_id
p4525
g14
(g15
g16
NtRp4526
S'Wt\xdc\x07\xe5\xbe:\n\x96\x84\x88*'
p4527
bsVid
p4528
I86265
sVedutype
p4529
VB
sa(dp4530
Vroletype
p4531
V00
p4532
sV_id
p4533
g14
(g15
g16
NtRp4534
S'Wt\xdc\x07\xe5\xbe:\n\x96\x84\x88+'
p4535
bsVid
p4536
I86266
sVedutype
p4537
VB
sa(dp4538
Vroletype
p4539
V00
p4540
sV_id
p4541
g14
(g15
g16
NtRp4542
S'Wt\xdc\x07\xe5\xbe:\n\x96\x84\x88/'
p4543
bsVid
p4544
I86270
sVedutype
p4545
VB
sa(dp4546
Vroletype
p4547
V00
p4548
sV_id
p4549
g14
(g15
g16
NtRp4550
S'Wt\xdc\x07\xe5\xbe:\n\x96\x84\x884'
p4551
bsVid
p4552
I86275
sVedutype
p4553
VB
sa(dp4554
Vroletype
p4555
V00
p4556
sV_id
p4557
g14
(g15
g16
NtRp4558
S'Wt\xdc\x07\xe5\xbe:\n\x96\x84\x885'
p4559
bsVid
p4560
I86276
sVedutype
p4561
VB
sa(dp4562
Vroletype
p4563
V00
p4564
sV_id
p4565
g14
(g15
g16
NtRp4566
S'Wt\xdc\x07\xe5\xbe:\n\x96\x84\x88q'
p4567
bsVid
p4568
I86336
sVedutype
p4569
VB
sa(dp4570
Vroletype
p4571
V00
p4572
sV_id
p4573
g14
(g15
g16
NtRp4574
S'Wt\xdc\x07\xe5\xbe:\n\x96\x84\x88\xee'
p4575
bsVid
p4576
I86461
sVedutype
p4577
VB
sa(dp4578
Vroletype
p4579
V00
p4580
sV_id
p4581
g14
(g15
g16
NtRp4582
S'Wt\xdc\x07\xe5\xbe:\n\x96\x84\x89\x05'
p4583
bsVid
p4584
I86484
sVedutype
p4585
VB
sa(dp4586
Vroletype
p4587
V00
p4588
sV_id
p4589
g14
(g15
g16
NtRp4590
S'Wt\xdc\x07\xe5\xbe:\n\x96\x84\x89\xdf'
p4591
bsVid
p4592
I86702
sVedutype
p4593
VB
sa(dp4594
Vroletype
p4595
V00
p4596
sV_id
p4597
g14
(g15
g16
NtRp4598
S'Wt\xdc\x07\xe5\xbe:\n\x96\x84\x8aN'
p4599
bsVid
p4600
I86813
sVedutype
p4601
VC
sa(dp4602
Vroletype
p4603
V00
p4604
sV_id
p4605
g14
(g15
g16
NtRp4606
S'Wt\xdc\x07\xe5\xbe:\n\x96\x84\x8ar'
p4607
bsVid
p4608
I86849
sVedutype
p4609
VC
sa(dp4610
Vroletype
p4611
V00
p4612
sV_id
p4613
g14
(g15
g16
NtRp4614
S'Wt\xdc\x07\xe5\xbe:\n\x96\x84\x8a\x82'
p4615
bsVid
p4616
I86865
sVedutype
p4617
VB
sag3797
a(dp4618
Vroletype
p4619
V00
p4620
sV_id
p4621
g14
(g15
g16
NtRp4622
S'Wt\xdc\x07\xe5\xbe:\n\x96\x84\x8a\xe8'
p4623
bsVid
p4624
I86967
sVedutype
p4625
VC
sa(dp4626
Vroletype
p4627
V00
p4628
sV_id
p4629
g14
(g15
g16
NtRp4630
S'Wt\xdc\x07\xe5\xbe:\n\x96\x84\x8b6'
p4631
bsVid
p4632
I87045
sVedutype
p4633
VC
sa(dp4634
Vroletype
p4635
V00
p4636
sV_id
p4637
g14
(g15
g16
NtRp4638
S'Wt\xdc\x07\xe5\xbe:\n\x96\x84\x8bE'
p4639
bsVid
p4640
I87060
sVedutype
p4641
VC
sa(dp4642
Vroletype
p4643
V00
p4644
sV_id
p4645
g14
(g15
g16
NtRp4646
S'Wt\xdc\x07\xe5\xbe:\n\x96\x84\x8bG'
p4647
bsVid
p4648
I87062
sVedutype
p4649
VB
sag2697
a(dp4650
Vroletype
p4651
V00
p4652
sV_id
p4653
g14
(g15
g16
NtRp4654
S'Wt\xdc\x07\xe5\xbe:\n\x96\x84\x8b}'
p4655
bsVid
p4656
I87116
sVedutype
p4657
VC
sa(dp4658
Vroletype
p4659
V00
p4660
sV_id
p4661
g14
(g15
g16
NtRp4662
S'Wt\xdc\x07\xe5\xbe:\n\x96\x84\x8b\xbc'
p4663
bsVid
p4664
I87179
sVedutype
p4665
VC
sa(dp4666
Vroletype
p4667
V00
p4668
sV_id
p4669
g14
(g15
g16
NtRp4670
S'Wt\xdc\x07\xe5\xbe:\n\x96\x84\x8b\xf3'
p4671
bsVid
p4672
I87234
sVedutype
p4673
VB
sa(dp4674
Vroletype
p4675
V00
p4676
sV_id
p4677
g14
(g15
g16
NtRp4678
S'Wt\xdc\x07\xe5\xbe:\n\x96\x84\x8b\xf4'
p4679
bsVid
p4680
I87235
sVedutype
p4681
VB
sa(dp4682
Vroletype
p4683
V00
p4684
sV_id
p4685
g14
(g15
g16
NtRp4686
S'Wt\xdc\x08\xe5\xbe:\n\x96\x84\x8c\x04'
p4687
bsVid
p4688
I87251
sVedutype
p4689
VC
sa(dp4690
Vroletype
p4691
V00
p4692
sV_id
p4693
g14
(g15
g16
NtRp4694
S'Wt\xdc\x08\xe5\xbe:\n\x96\x84\x8co'
p4695
bsVid
p4696
I87358
sVedutype
p4697
VB
sa(dp4698
Vroletype
p4699
V00
p4700
sV_id
p4701
g14
(g15
g16
NtRp4702
S'Wt\xdc\x08\xe5\xbe:\n\x96\x84\x8c\xa5'
p4703
bsVid
p4704
I87412
sVedutype
p4705
VB
sa(dp4706
Vroletype
p4707
V00
p4708
sV_id
p4709
g14
(g15
g16
NtRp4710
S'Wt\xdc\x08\xe5\xbe:\n\x96\x84\x8d5'
p4711
bsVid
p4712
I87556
sVedutype
p4713
VB
sa(dp4714
Vroletype
p4715
V00
p4716
sV_id
p4717
g14
(g15
g16
NtRp4718
S'Wt\xdc\x08\xe5\xbe:\n\x96\x84\x8d@'
p4719
bsVid
p4720
I87567
sVedutype
p4721
VB
sa(dp4722
Vroletype
p4723
V00
p4724
sV_id
p4725
g14
(g15
g16
NtRp4726
S'Wt\xdc\x08\xe5\xbe:\n\x96\x84\x8e\x10'
p4727
bsVid
p4728
I87775
sVedutype
p4729
VB
sa(dp4730
Vroletype
p4731
V00
p4732
sV_id
p4733
g14
(g15
g16
NtRp4734
S'Wt\xdc\x08\xe5\xbe:\n\x96\x84\x8e\x1d'
p4735
bsVid
p4736
I87788
sVedutype
p4737
VC
sa(dp4738
Vroletype
p4739
V00
p4740
sV_id
p4741
g14
(g15
g16
NtRp4742
S'Wt\xdc\x08\xe5\xbe:\n\x96\x84\x8ez'
p4743
bsVid
p4744
I87881
sVedutype
p4745
VB
sa(dp4746
Vroletype
p4747
V00
p4748
sV_id
p4749
g14
(g15
g16
NtRp4750
S'Wt\xdc\x08\xe5\xbe:\n\x96\x84\x8e\x89'
p4751
bsVid
p4752
I87896
sVedutype
p4753
VC
sa(dp4754
Vroletype
p4755
V00
p4756
sV_id
p4757
g14
(g15
g16
NtRp4758
S'Wt\xdc\x08\xe5\xbe:\n\x96\x84\x8e\xd5'
p4759
bsVid
p4760
I87972
sVedutype
p4761
VC
sa(dp4762
Vroletype
p4763
V00
p4764
sV_id
p4765
g14
(g15
g16
NtRp4766
S'Wt\xdc\x08\xe5\xbe:\n\x96\x84\x8fe'
p4767
bsVid
p4768
I88116
sVedutype
p4769
VB
sa(dp4770
Vroletype
p4771
V00
p4772
sV_id
p4773
g14
(g15
g16
NtRp4774
S'Wt\xdc\x08\xe5\xbe:\n\x96\x84\x8f\xa7'
p4775
bsVid
p4776
I88182
sVedutype
p4777
VC
sa(dp4778
Vroletype
p4779
V00
p4780
sV_id
p4781
g14
(g15
g16
NtRp4782
S'Wt\xdc\x08\xe5\xbe:\n\x96\x84\x8f\xb0'
p4783
bsVid
p4784
I88191
sVedutype
p4785
VC
sa(dp4786
Vroletype
p4787
V00
p4788
sV_id
p4789
g14
(g15
g16
NtRp4790
S'Wt\xdc\x08\xe5\xbe:\n\x96\x84\x8f\xdc'
p4791
bsVid
p4792
I88235
sVedutype
p4793
VB
sa(dp4794
Vroletype
p4795
V03
p4796
sV_id
p4797
g14
(g15
g16
NtRp4798
S'Wt\xdc\x08\xe5\xbe:\n\x96\x84\x8f\xe6'
p4799
bsVid
p4800
I88245
sVedutype
p4801
VB
sa(dp4802
Vroletype
p4803
V00
p4804
sV_id
p4805
g14
(g15
g16
NtRp4806
S'Wt\xdc\x08\xe5\xbe:\n\x96\x84\x90G'
p4807
bsVid
p4808
I88342
sVedutype
p4809
VB
sag2476
a(dp4810
Vroletype
p4811
V00
p4812
sV_id
p4813
g14
(g15
g16
NtRp4814
S'Wt\xdc\x08\xe5\xbe:\n\x96\x84\x90\x82'
p4815
bsVid
p4816
I88401
sVedutype
p4817
VB
sa(dp4818
Vroletype
p4819
V00
p4820
sV_id
p4821
g14
(g15
g16
NtRp4822
S'Wt\xdc\x08\xe5\xbe:\n\x96\x84\x90\x8b'
p4823
bsVid
p4824
I88410
sVedutype
p4825
VC
sag1928
a(dp4826
Vroletype
p4827
V00
p4828
sV_id
p4829
g14
(g15
g16
NtRp4830
S'Wt\xdc\x08\xe5\xbe:\n\x96\x84\x90\x97'
p4831
bsVid
p4832
I88422
sVedutype
p4833
VC
sa(dp4834
Vroletype
p4835
V00
p4836
sV_id
p4837
g14
(g15
g16
NtRp4838
S'Wt\xdc\x08\xe5\xbe:\n\x96\x84\x90\xb0'
p4839
bsVid
p4840
I88447
sVedutype
p4841
VC
sa(dp4842
Vroletype
p4843
V00
p4844
sV_id
p4845
g14
(g15
g16
NtRp4846
S'Wt\xdc\x08\xe5\xbe:\n\x96\x84\x90\xe1'
p4847
bsVid
p4848
I88496
sVedutype
p4849
VB
sag3917
a(dp4850
Vroletype
p4851
V00
p4852
sV_id
p4853
g14
(g15
g16
NtRp4854
S'Wt\xdc\x08\xe5\xbe:\n\x96\x84\x90\xf9'
p4855
bsVid
p4856
I88520
sVedutype
p4857
VB
sa(dp4858
Vroletype
p4859
V00
p4860
sV_id
p4861
g14
(g15
g16
NtRp4862
S'Wt\xdc\x08\xe5\xbe:\n\x96\x84\x91H'
p4863
bsVid
p4864
I88599
sVedutype
p4865
VB
sa(dp4866
Vroletype
p4867
V00
p4868
sV_id
p4869
g14
(g15
g16
NtRp4870
S'Wt\xdc\x08\xe5\xbe:\n\x96\x84\x91v'
p4871
bsVid
p4872
I88645
sVedutype
p4873
VB
sa(dp4874
Vroletype
p4875
V00
p4876
sV_id
p4877
g14
(g15
g16
NtRp4878
S'Wt\xdc\x08\xe5\xbe:\n\x96\x84\x91\xb6'
p4879
bsVid
p4880
I88709
sVedutype
p4881
VB
sa(dp4882
Vroletype
p4883
V00
p4884
sV_id
p4885
g14
(g15
g16
NtRp4886
S'Wt\xdc\x08\xe5\xbe:\n\x96\x84\x91\xc3'
p4887
bsVid
p4888
I88722
sVedutype
p4889
VB
sa(dp4890
Vroletype
p4891
V00
p4892
sV_id
p4893
g14
(g15
g16
NtRp4894
S'Wt\xdc\x08\xe5\xbe:\n\x96\x84\x92\xb6'
p4895
bsVid
p4896
I88965
sVedutype
p4897
VB
sa(dp4898
Vroletype
p4899
V00
p4900
sV_id
p4901
g14
(g15
g16
NtRp4902
S'Wt\xdc\t\xe5\xbe:\n\x96\x84\x92\xe2'
p4903
bsVid
p4904
I89009
sVedutype
p4905
VB
sa(dp4906
Vroletype
p4907
V00
p4908
sV_id
p4909
g14
(g15
g16
NtRp4910
S'Wt\xdc\t\xe5\xbe:\n\x96\x84\x93\x01'
p4911
bsVid
p4912
I89040
sVedutype
p4913
VC
sa(dp4914
Vroletype
p4915
V00
p4916
sV_id
p4917
g14
(g15
g16
NtRp4918
S'Wt\xdc\t\xe5\xbe:\n\x96\x84\x93\x0c'
p4919
bsVid
p4920
I89051
sVedutype
p4921
VC
sa(dp4922
Vroletype
p4923
V00
p4924
sV_id
p4925
g14
(g15
g16
NtRp4926
S'Wt\xdc\t\xe5\xbe:\n\x96\x84\x93U'
p4927
bsVid
p4928
I89124
sVedutype
p4929
VC
sa(dp4930
Vroletype
p4931
V00
p4932
sV_id
p4933
g14
(g15
g16
NtRp4934
S'Wt\xdc\t\xe5\xbe:\n\x96\x84\x93\xdb'
p4935
bsVid
p4936
I89258
sVedutype
p4937
VC
sa(dp4938
Vroletype
p4939
V00
p4940
sV_id
p4941
g14
(g15
g16
NtRp4942
S'Wt\xdc\t\xe5\xbe:\n\x96\x84\x93\xe8'
p4943
bsVid
p4944
I89271
sVedutype
p4945
VC
sa(dp4946
Vroletype
p4947
V00
p4948
sV_id
p4949
g14
(g15
g16
NtRp4950
S'Wt\xdc\t\xe5\xbe:\n\x96\x84\x94\x17'
p4951
bsVid
p4952
I89318
sVedutype
p4953
VC
sag4021
a(dp4954
Vroletype
p4955
V00
p4956
sV_id
p4957
g14
(g15
g16
NtRp4958
S'Wt\xdc\t\xe5\xbe:\n\x96\x84\x94\xa9'
p4959
bsVid
p4960
I89464
sVedutype
p4961
VC
sa(dp4962
Vroletype
p4963
V00
p4964
sV_id
p4965
g14
(g15
g16
NtRp4966
S'Wt\xdc\t\xe5\xbe:\n\x96\x84\x94\xc2'
p4967
bsVid
p4968
I89489
sVedutype
p4969
VC
sa(dp4970
Vroletype
p4971
V00
p4972
sV_id
p4973
g14
(g15
g16
NtRp4974
S'Wt\xdc\t\xe5\xbe:\n\x96\x84\x94\xfd'
p4975
bsVid
p4976
I89548
sVedutype
p4977
VC
sa(dp4978
Vroletype
p4979
V00
p4980
sV_id
p4981
g14
(g15
g16
NtRp4982
S'Wt\xdc\t\xe5\xbe:\n\x96\x84\x95/'
p4983
bsVid
p4984
I89598
sVedutype
p4985
VB
sa(dp4986
Vroletype
p4987
V00
p4988
sV_id
p4989
g14
(g15
g16
NtRp4990
S'Wt\xdc\t\xe5\xbe:\n\x96\x84\x959'
p4991
bsVid
p4992
I89608
sVedutype
p4993
VB
sag4037
a(dp4994
Vroletype
p4995
V00
p4996
sV_id
p4997
g14
(g15
g16
NtRp4998
S'Wt\xdc\t\xe5\xbe:\n\x96\x84\x95['
p4999
bsVid
p5000
I89642
sVedutype
p5001
VB
sa(dp5002
Vroletype
p5003
V00
p5004
sV_id
p5005
g14
(g15
g16
NtRp5006
S'Wt\xdc\t\xe5\xbe:\n\x96\x84\x95\xae'
p5007
bsVid
p5008
I89725
sVedutype
p5009
VB
sa(dp5010
Vroletype
p5011
V00
p5012
sV_id
p5013
g14
(g15
g16
NtRp5014
S'Wt\xdc\t\xe5\xbe:\n\x96\x84\x95\xd8'
p5015
bsVid
p5016
I89767
sVedutype
p5017
VB
sa(dp5018
Vroletype
p5019
V00
p5020
sV_id
p5021
g14
(g15
g16
NtRp5022
S'Wt\xdc\t\xe5\xbe:\n\x96\x84\x95\xf7'
p5023
bsVid
p5024
I89798
sVedutype
p5025
VC
sa(dp5026
Vroletype
p5027
V00
p5028
sV_id
p5029
g14
(g15
g16
NtRp5030
S'Wt\xdc\t\xe5\xbe:\n\x96\x84\x96$'
p5031
bsVid
p5032
I89843
sVedutype
p5033
VC
sa(dp5034
Vroletype
p5035
V00
p5036
sV_id
p5037
g14
(g15
g16
NtRp5038
S'Wt\xdc\t\xe5\xbe:\n\x96\x84\x96.'
p5039
bsVid
p5040
I89853
sVedutype
p5041
VB
sa(dp5042
Vroletype
p5043
V00
p5044
sV_id
p5045
g14
(g15
g16
NtRp5046
S'Wt\xdc\t\xe5\xbe:\n\x96\x84\x96\xb6'
p5047
bsVid
p5048
I89989
sVedutype
p5049
VC
sa(dp5050
Vroletype
p5051
V00
p5052
sV_id
p5053
g14
(g15
g16
NtRp5054
S'Wt\xdc\t\xe5\xbe:\n\x96\x84\x96\xdf'
p5055
bsVid
p5056
I90030
sVedutype
p5057
VB
sa(dp5058
Vroletype
p5059
V00
p5060
sV_id
p5061
g14
(g15
g16
NtRp5062
S'Wt\xdc\t\xe5\xbe:\n\x96\x84\x97\x12'
p5063
bsVid
p5064
I90081
sVedutype
p5065
VB
sa(dp5066
Vroletype
p5067
V00
p5068
sV_id
p5069
g14
(g15
g16
NtRp5070
S'Wt\xdc\t\xe5\xbe:\n\x96\x84\x975'
p5071
bsVid
p5072
I90116
sVedutype
p5073
VC
sa(dp5074
Vroletype
p5075
V00
p5076
sV_id
p5077
g14
(g15
g16
NtRp5078
S'Wt\xdc\t\xe5\xbe:\n\x96\x84\x978'
p5079
bsVid
p5080
I90119
sVedutype
p5081
VC
sag4109
a(dp5082
Vroletype
p5083
V04
p5084
sV_id
p5085
g14
(g15
g16
NtRp5086
S'Wt\xdc\t\xe5\xbe:\n\x96\x84\x97\x9f'
p5087
bsVid
p5088
I90222
sVedutype
p5089
VB
sa(dp5090
Vroletype
p5091
V00
p5092
sV_id
p5093
g14
(g15
g16
NtRp5094
S'Wt\xdc\t\xe5\xbe:\n\x96\x84\x97\xb6'
p5095
bsVid
p5096
I90245
sVedutype
p5097
VB
sa(dp5098
Vroletype
p5099
V00
p5100
sV_id
p5101
g14
(g15
g16
NtRp5102
S'Wt\xdc\t\xe5\xbe:\n\x96\x84\x98\x06'
p5103
bsVid
p5104
I90325
sVedutype
p5105
VC
sa(dp5106
Vroletype
p5107
V00
p5108
sV_id
p5109
g14
(g15
g16
NtRp5110
S'Wt\xdc\t\xe5\xbe:\n\x96\x84\x98I'
p5111
bsVid
p5112
I90392
sVedutype
p5113
VB
sa(dp5114
Vroletype
p5115
V00
p5116
sV_id
p5117
g14
(g15
g16
NtRp5118
S'Wt\xdc\t\xe5\xbe:\n\x96\x84\x98L'
p5119
bsVid
p5120
I90395
sVedutype
p5121
VB
sa(dp5122
Vroletype
p5123
V00
p5124
sV_id
p5125
g14
(g15
g16
NtRp5126
S'Wt\xdc\t\xe5\xbe:\n\x96\x84\x98l'
p5127
bsVid
p5128
I90427
sVedutype
p5129
VB
sa(dp5130
Vroletype
p5131
V00
p5132
sV_id
p5133
g14
(g15
g16
NtRp5134
S'Wt\xdc\t\xe5\xbe:\n\x96\x84\x98\x87'
p5135
bsVid
p5136
I90454
sVedutype
p5137
VB
sa(dp5138
Vroletype
p5139
V00
p5140
sV_id
p5141
g14
(g15
g16
NtRp5142
S'Wt\xdc\t\xe5\xbe:\n\x96\x84\x98\xe0'
p5143
bsVid
p5144
I90543
sVedutype
p5145
VB
sa(dp5146
Vroletype
p5147
V00
p5148
sV_id
p5149
g14
(g15
g16
NtRp5150
S'Wt\xdc\t\xe5\xbe:\n\x96\x84\x98\xed'
p5151
bsVid
p5152
I90556
sVedutype
p5153
VB
sa(dp5154
Vroletype
p5155
V00
p5156
sV_id
p5157
g14
(g15
g16
NtRp5158
S'Wt\xdc\t\xe5\xbe:\n\x96\x84\x98\xf1'
p5159
bsVid
p5160
I90560
sVedutype
p5161
VB
sa(dp5162
Vroletype
p5163
V00
p5164
sV_id
p5165
g14
(g15
g16
NtRp5166
S'Wt\xdc\t\xe5\xbe:\n\x96\x84\x99\x03'
p5167
bsVid
p5168
I90578
sVedutype
p5169
VC
sag2000
a(dp5170
Vroletype
p5171
V00
p5172
sV_id
p5173
g14
(g15
g16
NtRp5174
S"Wt\xdc\t\xe5\xbe:\n\x96\x84\x99'"
p5175
bsVid
p5176
I90614
sVedutype
p5177
VB
sa(dp5178
Vroletype
p5179
V00
p5180
sV_id
p5181
g14
(g15
g16
NtRp5182
S'Wt\xdc\t\xe5\xbe:\n\x96\x84\x99f'
p5183
bsVid
p5184
I90677
sVedutype
p5185
VB
sa(dp5186
Vroletype
p5187
V00
p5188
sV_id
p5189
g14
(g15
g16
NtRp5190
S'Wt\xdc\t\xe5\xbe:\n\x96\x84\x99\xbd'
p5191
bsVid
p5192
I90764
sVedutype
p5193
VC
sa(dp5194
Vroletype
p5195
V12
p5196
sV_id
p5197
g14
(g15
g16
NtRp5198
S'Wt\xdc\t\xe5\xbe:\n\x96\x84\x9a_'
p5199
bsVid
p5200
I90926
sVedutype
p5201
VZ
sa(dp5202
Vroletype
p5203
V00
p5204
sV_id
p5205
g14
(g15
g16
NtRp5206
S'Wt\xdc\t\xe5\xbe:\n\x96\x84\x9av'
p5207
bsVid
p5208
I90949
sVedutype
p5209
VB
sa(dp5210
Vroletype
p5211
V00
p5212
sV_id
p5213
g14
(g15
g16
NtRp5214
S'Wt\xdc\t\xe5\xbe:\n\x96\x84\x9a\x82'
p5215
bsVid
p5216
I90961
sVedutype
p5217
VB
sag245
a(dp5218
Vroletype
p5219
V00
p5220
sV_id
p5221
g14
(g15
g16
NtRp5222
S'Wt\xdc\t\xe5\xbe:\n\x96\x84\x9br'
p5223
bsVid
p5224
I91201
sVedutype
p5225
VB
sa(dp5226
Vroletype
p5227
V00
p5228
sV_id
p5229
g14
(g15
g16
NtRp5230
S'Wt\xdc\t\xe5\xbe:\n\x96\x84\x9b{'
p5231
bsVid
p5232
I91210
sVedutype
p5233
VC
sa(dp5234
Vroletype
p5235
V12
p5236
sV_id
p5237
g14
(g15
g16
NtRp5238
S'Wt\xdc\n\xe5\xbe:\n\x96\x84\x9b\xa8'
p5239
bsVid
p5240
I91255
sVedutype
p5241
VH
sag4205
a(dp5242
Vroletype
p5243
V00
p5244
sV_id
p5245
g14
(g15
g16
NtRp5246
S'Wt\xdc\n\xe5\xbe:\n\x96\x84\x9c '
p5247
bsVid
p5248
I91375
sVedutype
p5249
VB
sa(dp5250
Vroletype
p5251
V05
p5252
sV_id
p5253
g14
(g15
g16
NtRp5254
S'Wt\xdc\n\xe5\xbe:\n\x96\x84\x9c)'
p5255
bsVid
p5256
I91384
sVedutype
p5257
VF
sa(dp5258
Vroletype
p5259
V00
p5260
sV_id
p5261
g14
(g15
g16
NtRp5262
S'Wt\xdc\n\xe5\xbe:\n\x96\x84\x9cC'
p5263
bsVid
p5264
I91410
sVedutype
p5265
VB
sa(dp5266
Vroletype
p5267
V00
p5268
sV_id
p5269
g14
(g15
g16
NtRp5270
S'Wt\xdc\n\xe5\xbe:\n\x96\x84\x9c|'
p5271
bsVid
p5272
I91467
sVedutype
p5273
VB
sag4229
a(dp5274
Vroletype
p5275
V00
p5276
sV_id
p5277
g14
(g15
g16
NtRp5278
S'Wt\xdc\n\xe5\xbe:\n\x96\x84\x9c\xca'
p5279
bsVid
p5280
I91545
sVedutype
p5281
VC
sasg253
g254
((dp5282
VC
I45
sVB
I102
sVE
I1
sVD
I1
sVF
I2
sVH
I1
sg256
I1003
sVZ
I2
stRp5283
sa(dp5284
g3
I11824255
sg4
I1857
sg5
V1677356
p5285
sg7
VB
sg8
(lp5286
I-1
ag10
a(dp5287
Vroletype
p5288
V00
p5289
sV_id
p5290
g14
(g15
g16
NtRp5291
S'Wt\xdb\xf2\xe5\xbe:\n\x96\x83\xcf\xd7'
p5292
bsVid
p5293
I36253
sVedutype
p5294
VB
sa(dp5295
Vroletype
p5296
V00
p5297
sV_id
p5298
g14
(g15
g16
NtRp5299
S'Wt\xdb\xf8\xe5\xbe:\n\x96\x84\r\x91'
p5300
bsVid
p5301
I54786
sVedutype
p5302
VB
sa(dp5303
Vroletype
p5304
V00
p5305
sV_id
p5306
g14
(g15
g16
NtRp5307
S'Wt\xdb\xfd\xe5\xbe:\n\x96\x842\x9e'
p5308
bsVid
p5309
I64323
sVedutype
p5310
VC
sag1240
a(dp5311
Vroletype
p5312
V00
p5313
sV_id
p5314
g14
(g15
g16
NtRp5315
S'Wt\xdc\x02\xe5\xbe:\n\x96\x84W\x1d'
p5316
bsVid
p5317
I73700
sVedutype
p5318
VB
sag1264
ag2132
ag3200
ag1336
a(dp5319
Vroletype
p5320
V05
p5321
sV_id
p5322
g14
(g15
g16
NtRp5323
S'Wt\xdc\x02\xe5\xbe:\n\x96\x84X@'
p5324
bsVid
p5325
I73992
sVedutype
p5326
VZ
sa(dp5327
Vroletype
p5328
V00
p5329
sV_id
p5330
g14
(g15
g16
NtRp5331
S'Wt\xdc\x02\xe5\xbe:\n\x96\x84XV'
p5332
bsVid
p5333
I74014
sVedutype
p5334
VB
sa(dp5335
Vroletype
p5336
V00
p5337
sV_id
p5338
g14
(g15
g16
NtRp5339
S'Wt\xdc\x02\xe5\xbe:\n\x96\x84Xb'
p5340
bsVid
p5341
I74026
sVedutype
p5342
VB
sa(dp5343
Vroletype
p5344
V12
p5345
sV_id
p5346
g14
(g15
g16
NtRp5347
S'Wt\xdc\x02\xe5\xbe:\n\x96\x84Xs'
p5348
bsVid
p5349
I74043
sVedutype
p5350
VZ
sa(dp5351
Vroletype
p5352
V00
p5353
sV_id
p5354
g14
(g15
g16
NtRp5355
S'Wt\xdc\x02\xe5\xbe:\n\x96\x84Y\x0b'
p5356
bsVid
p5357
I74195
sVedutype
p5358
VB
sa(dp5359
Vroletype
p5360
V00
p5361
sV_id
p5362
g14
(g15
g16
NtRp5363
S'Wt\xdc\x02\xe5\xbe:\n\x96\x84Y\x10'
p5364
bsVid
p5365
I74200
sVedutype
p5366
VB
sa(dp5367
Vroletype
p5368
V00
p5369
sV_id
p5370
g14
(g15
g16
NtRp5371
S'Wt\xdc\x02\xe5\xbe:\n\x96\x84YY'
p5372
bsVid
p5373
I74273
sVedutype
p5374
VB
sa(dp5375
Vroletype
p5376
V00
p5377
sV_id
p5378
g14
(g15
g16
NtRp5379
S'Wt\xdc\x02\xe5\xbe:\n\x96\x84Y['
p5380
bsVid
p5381
I74275
sVedutype
p5382
VB
sa(dp5383
Vroletype
p5384
V00
p5385
sV_id
p5386
g14
(g15
g16
NtRp5387
S'Wt\xdc\x02\xe5\xbe:\n\x96\x84Ya'
p5388
bsVid
p5389
I74281
sVedutype
p5390
VB
sa(dp5391
Vroletype
p5392
V00
p5393
sV_id
p5394
g14
(g15
g16
NtRp5395
S'Wt\xdc\x02\xe5\xbe:\n\x96\x84Z\x04'
p5396
bsVid
p5397
I74444
sVedutype
p5398
VB
sa(dp5399
Vroletype
p5400
V00
p5401
sV_id
p5402
g14
(g15
g16
NtRp5403
S'Wt\xdc\x02\xe5\xbe:\n\x96\x84Z\x05'
p5404
bsVid
p5405
I74445
sVedutype
p5406
VB
sa(dp5407
Vroletype
p5408
V00
p5409
sV_id
p5410
g14
(g15
g16
NtRp5411
S"Wt\xdc\x02\xe5\xbe:\n\x96\x84Z'"
p5412
bsVid
p5413
I74479
sVedutype
p5414
VB
sa(dp5415
Vroletype
p5416
V00
p5417
sV_id
p5418
g14
(g15
g16
NtRp5419
S'Wt\xdc\x02\xe5\xbe:\n\x96\x84Z0'
p5420
bsVid
p5421
I74488
sVedutype
p5422
VB
sa(dp5423
Vroletype
p5424
V00
p5425
sV_id
p5426
g14
(g15
g16
NtRp5427
S'Wt\xdc\x02\xe5\xbe:\n\x96\x84Z8'
p5428
bsVid
p5429
I74496
sVedutype
p5430
VB
sag277
a(dp5431
Vroletype
p5432
V00
p5433
sV_id
p5434
g14
(g15
g16
NtRp5435
S'Wt\xdc\x02\xe5\xbe:\n\x96\x84Z<'
p5436
bsVid
p5437
I74500
sVedutype
p5438
VB
sa(dp5439
Vroletype
p5440
V00
p5441
sV_id
p5442
g14
(g15
g16
NtRp5443
S'Wt\xdc\x02\xe5\xbe:\n\x96\x84ZP'
p5444
bsVid
p5445
I74520
sVedutype
p5446
VB
sa(dp5447
Vroletype
p5448
V00
p5449
sV_id
p5450
g14
(g15
g16
NtRp5451
S'Wt\xdc\x02\xe5\xbe:\n\x96\x84Z\\'
p5452
bsVid
p5453
I74532
sVedutype
p5454
VB
sa(dp5455
Vroletype
p5456
V00
p5457
sV_id
p5458
g14
(g15
g16
NtRp5459
S'Wt\xdc\x02\xe5\xbe:\n\x96\x84Zj'
p5460
bsVid
p5461
I74546
sVedutype
p5462
VB
sa(dp5463
Vroletype
p5464
V00
p5465
sV_id
p5466
g14
(g15
g16
NtRp5467
S'Wt\xdc\x02\xe5\xbe:\n\x96\x84Zx'
p5468
bsVid
p5469
I74560
sVedutype
p5470
VB
sag4290
a(dp5471
Vroletype
p5472
V00
p5473
sV_id
p5474
g14
(g15
g16
NtRp5475
S'Wt\xdc\x02\xe5\xbe:\n\x96\x84Z\x90'
p5476
bsVid
p5477
I74585
sVedutype
p5478
VB
sa(dp5479
Vroletype
p5480
V00
p5481
sV_id
p5482
g14
(g15
g16
NtRp5483
S'Wt\xdc\x02\xe5\xbe:\n\x96\x84Z\xa4'
p5484
bsVid
p5485
I74605
sVedutype
p5486
VB
sa(dp5487
Vroletype
p5488
V00
p5489
sV_id
p5490
g14
(g15
g16
NtRp5491
S'Wt\xdc\x02\xe5\xbe:\n\x96\x84Z\xa9'
p5492
bsVid
p5493
I74610
sVedutype
p5494
VB
sa(dp5495
Vroletype
p5496
V00
p5497
sV_id
p5498
g14
(g15
g16
NtRp5499
S'Wt\xdc\x02\xe5\xbe:\n\x96\x84Z\xc4'
p5500
bsVid
p5501
I74637
sVedutype
p5502
VB
sa(dp5503
Vroletype
p5504
V00
p5505
sV_id
p5506
g14
(g15
g16
NtRp5507
S'Wt\xdc\x02\xe5\xbe:\n\x96\x84Z\xd6'
p5508
bsVid
p5509
I74655
sVedutype
p5510
VB
sa(dp5511
Vroletype
p5512
V00
p5513
sV_id
p5514
g14
(g15
g16
NtRp5515
S'Wt\xdc\x02\xe5\xbe:\n\x96\x84Z\xf6'
p5516
bsVid
p5517
I74688
sVedutype
p5518
VB
sa(dp5519
Vroletype
p5520
V00
p5521
sV_id
p5522
g14
(g15
g16
NtRp5523
S'Wt\xdc\x02\xe5\xbe:\n\x96\x84[ '
p5524
bsVid
p5525
I74730
sVedutype
p5526
VC
sa(dp5527
Vroletype
p5528
V00
p5529
sV_id
p5530
g14
(g15
g16
NtRp5531
S'Wt\xdc\x02\xe5\xbe:\n\x96\x84[\xed'
p5532
bsVid
p5533
I74935
sVedutype
p5534
VB
sag3248
a(dp5535
Vroletype
p5536
V00
p5537
sV_id
p5538
g14
(g15
g16
NtRp5539
S'Wt\xdc\x02\xe5\xbe:\n\x96\x84\\\x9f'
p5540
bsVid
p5541
I75114
sVedutype
p5542
VB
sa(dp5543
Vroletype
p5544
V00
p5545
sV_id
p5546
g14
(g15
g16
NtRp5547
S'Wt\xdc\x02\xe5\xbe:\n\x96\x84\\\xb7'
p5548
bsVid
p5549
I75138
sVedutype
p5550
VB
sa(dp5551
Vroletype
p5552
V00
p5553
sV_id
p5554
g14
(g15
g16
NtRp5555
S'Wt\xdc\x04\xe5\xbe:\n\x96\x84qW'
p5556
bsVid
p5557
I80418
sVedutype
p5558
VB
sa(dp5559
Vroletype
p5560
V00
p5561
sV_id
p5562
g14
(g15
g16
NtRp5563
S'Wt\xdc\x04\xe5\xbe:\n\x96\x84qo'
p5564
bsVid
p5565
I80442
sVedutype
p5566
VB
sa(dp5567
Vroletype
p5568
V00
p5569
sV_id
p5570
g14
(g15
g16
NtRp5571
S'Wt\xdc\x04\xe5\xbe:\n\x96\x84q\xa0'
p5572
bsVid
p5573
I80491
sVedutype
p5574
VB
sa(dp5575
Vroletype
p5576
V00
p5577
sV_id
p5578
g14
(g15
g16
NtRp5579
S'Wt\xdc\x04\xe5\xbe:\n\x96\x84rj'
p5580
bsVid
p5581
I80693
sVedutype
p5582
VB
sa(dp5583
Vroletype
p5584
V00
p5585
sV_id
p5586
g14
(g15
g16
NtRp5587
S'Wt\xdc\x04\xe5\xbe:\n\x96\x84r\x7f'
p5588
bsVid
p5589
I80714
sVedutype
p5590
VB
sa(dp5591
Vroletype
p5592
V00
p5593
sV_id
p5594
g14
(g15
g16
NtRp5595
S'Wt\xdc\x05\xe5\xbe:\n\x96\x84r\xb1'
p5596
bsVid
p5597
I80764
sVedutype
p5598
VB
sa(dp5599
Vroletype
p5600
V00
p5601
sV_id
p5602
g14
(g15
g16
NtRp5603
S'Wt\xdc\x05\xe5\xbe:\n\x96\x84r\xb3'
p5604
bsVid
p5605
I80766
sVedutype
p5606
VB
sa(dp5607
Vroletype
p5608
V00
p5609
sV_id
p5610
g14
(g15
g16
NtRp5611
S'Wt\xdc\x05\xe5\xbe:\n\x96\x84r\xbb'
p5612
bsVid
p5613
I80774
sVedutype
p5614
VB
sa(dp5615
Vroletype
p5616
V00
p5617
sV_id
p5618
g14
(g15
g16
NtRp5619
S'Wt\xdc\x05\xe5\xbe:\n\x96\x84r\xcc'
p5620
bsVid
p5621
I80791
sVedutype
p5622
VB
sa(dp5623
Vroletype
p5624
V00
p5625
sV_id
p5626
g14
(g15
g16
NtRp5627
S'Wt\xdc\x05\xe5\xbe:\n\x96\x84r\xcf'
p5628
bsVid
p5629
I80794
sVedutype
p5630
VB
sa(dp5631
Vroletype
p5632
V05
p5633
sV_id
p5634
g14
(g15
g16
NtRp5635
S'Wt\xdc\x05\xe5\xbe:\n\x96\x84r\xdc'
p5636
bsVid
p5637
I80807
sVedutype
p5638
VH
sa(dp5639
Vroletype
p5640
V00
p5641
sV_id
p5642
g14
(g15
g16
NtRp5643
S'Wt\xdc\x05\xe5\xbe:\n\x96\x84r\xf3'
p5644
bsVid
p5645
I80830
sVedutype
p5646
VB
sa(dp5647
Vroletype
p5648
V00
p5649
sV_id
p5650
g14
(g15
g16
NtRp5651
S'Wt\xdc\x05\xe5\xbe:\n\x96\x84r\xfa'
p5652
bsVid
p5653
I80837
sVedutype
p5654
VB
sag638
a(dp5655
Vroletype
p5656
V00
p5657
sV_id
p5658
g14
(g15
g16
NtRp5659
S'Wt\xdc\x05\xe5\xbe:\n\x96\x84s5'
p5660
bsVid
p5661
I80896
sVedutype
p5662
VB
sa(dp5663
Vroletype
p5664
V00
p5665
sV_id
p5666
g14
(g15
g16
NtRp5667
S'Wt\xdc\x05\xe5\xbe:\n\x96\x84sX'
p5668
bsVid
p5669
I80932
sVedutype
p5670
VB
sa(dp5671
Vroletype
p5672
V00
p5673
sV_id
p5674
g14
(g15
g16
NtRp5675
S'Wt\xdc\x05\xe5\xbe:\n\x96\x84sj'
p5676
bsVid
p5677
I80950
sVedutype
p5678
VB
sa(dp5679
Vroletype
p5680
V00
p5681
sV_id
p5682
g14
(g15
g16
NtRp5683
S'Wt\xdc\x05\xe5\xbe:\n\x96\x84sq'
p5684
bsVid
p5685
I80957
sVedutype
p5686
VB
sa(dp5687
Vroletype
p5688
V00
p5689
sV_id
p5690
g14
(g15
g16
NtRp5691
S'Wt\xdc\x05\xe5\xbe:\n\x96\x84su'
p5692
bsVid
p5693
I80961
sVedutype
p5694
VB
sa(dp5695
Vroletype
p5696
V00
p5697
sV_id
p5698
g14
(g15
g16
NtRp5699
S'Wt\xdc\x05\xe5\xbe:\n\x96\x84s\x8b'
p5700
bsVid
p5701
I80983
sVedutype
p5702
VB
sa(dp5703
Vroletype
p5704
V00
p5705
sV_id
p5706
g14
(g15
g16
NtRp5707
S'Wt\xdc\x05\xe5\xbe:\n\x96\x84s\xc1'
p5708
bsVid
p5709
I81037
sVedutype
p5710
VB
sa(dp5711
Vroletype
p5712
V00
p5713
sV_id
p5714
g14
(g15
g16
NtRp5715
S'Wt\xdc\x05\xe5\xbe:\n\x96\x84s\xe4'
p5716
bsVid
p5717
I81072
sVedutype
p5718
VB
sa(dp5719
Vroletype
p5720
V00
p5721
sV_id
p5722
g14
(g15
g16
NtRp5723
S'Wt\xdc\x05\xe5\xbe:\n\x96\x84s\xea'
p5724
bsVid
p5725
I81078
sVedutype
p5726
VB
sa(dp5727
Vroletype
p5728
V00
p5729
sV_id
p5730
g14
(g15
g16
NtRp5731
S'Wt\xdc\x05\xe5\xbe:\n\x96\x84t\x1a'
p5732
bsVid
p5733
I81126
sVedutype
p5734
VB
sa(dp5735
Vroletype
p5736
V00
p5737
sV_id
p5738
g14
(g15
g16
NtRp5739
S'Wt\xdc\x05\xe5\xbe:\n\x96\x84t\x1b'
p5740
bsVid
p5741
I81127
sVedutype
p5742
VB
sa(dp5743
Vroletype
p5744
V00
p5745
sV_id
p5746
g14
(g15
g16
NtRp5747
S'Wt\xdc\x05\xe5\xbe:\n\x96\x84tP'
p5748
bsVid
p5749
I81180
sVedutype
p5750
VB
sa(dp5751
Vroletype
p5752
V00
p5753
sV_id
p5754
g14
(g15
g16
NtRp5755
S'Wt\xdc\x05\xe5\xbe:\n\x96\x84tk'
p5756
bsVid
p5757
I81207
sVedutype
p5758
VB
sa(dp5759
Vroletype
p5760
V00
p5761
sV_id
p5762
g14
(g15
g16
NtRp5763
S'Wt\xdc\x05\xe5\xbe:\n\x96\x84tu'
p5764
bsVid
p5765
I81217
sVedutype
p5766
VB
sag293
a(dp5767
Vroletype
p5768
V00
p5769
sV_id
p5770
g14
(g15
g16
NtRp5771
S'Wt\xdc\x05\xe5\xbe:\n\x96\x84t\xbf'
p5772
bsVid
p5773
I81291
sVedutype
p5774
VD
sa(dp5775
Vroletype
p5776
V00
p5777
sV_id
p5778
g14
(g15
g16
NtRp5779
S'Wt\xdc\x05\xe5\xbe:\n\x96\x84t\xfa'
p5780
bsVid
p5781
I81350
sVedutype
p5782
VB
sag4338
ag2428
ag2444
a(dp5783
Vroletype
p5784
V00
p5785
sV_id
p5786
g14
(g15
g16
NtRp5787
S'Wt\xdc\x05\xe5\xbe:\n\x96\x84w\xaf'
p5788
bsVid
p5789
I82043
sVedutype
p5790
VB
sa(dp5791
Vroletype
p5792
V12
p5793
sV_id
p5794
g14
(g15
g16
NtRp5795
S'Wt\xdc\x05\xe5\xbe:\n\x96\x84w\xd5'
p5796
bsVid
p5797
I82081
sVedutype
p5798
VB
sag1840
a(dp5799
Vroletype
p5800
V00
p5801
sV_id
p5802
g14
(g15
g16
NtRp5803
S'Wt\xdc\x05\xe5\xbe:\n\x96\x84x\x02'
p5804
bsVid
p5805
I82126
sVedutype
p5806
VB
sag3368
ag3376
ag1856
a(dp5807
Vroletype
p5808
V12
p5809
sV_id
p5810
g14
(g15
g16
NtRp5811
S'Wt\xdc\x05\xe5\xbe:\n\x96\x84x\x8c'
p5812
bsVid
p5813
I82264
sVedutype
p5814
VZ
sag3392
a(dp5815
Vroletype
p5816
V00
p5817
sV_id
p5818
g14
(g15
g16
NtRp5819
S'Wt\xdc\x05\xe5\xbe:\n\x96\x84x\xba'
p5820
bsVid
p5821
I82310
sVedutype
p5822
VB
sag2460
a(dp5823
Vroletype
p5824
V00
p5825
sV_id
p5826
g14
(g15
g16
NtRp5827
S'Wt\xdc\x05\xe5\xbe:\n\x96\x84x\xf4'
p5828
bsVid
p5829
I82368
sVedutype
p5830
VB
sa(dp5831
Vroletype
p5832
V00
p5833
sV_id
p5834
g14
(g15
g16
NtRp5835
S'Wt\xdc\x05\xe5\xbe:\n\x96\x84y\t'
p5836
bsVid
p5837
I82389
sVedutype
p5838
VC
sa(dp5839
Vroletype
p5840
V00
p5841
sV_id
p5842
g14
(g15
g16
NtRp5843
S'Wt\xdc\x05\xe5\xbe:\n\x96\x84yA'
p5844
bsVid
p5845
I82445
sVedutype
p5846
VB
sa(dp5847
Vroletype
p5848
V00
p5849
sV_id
p5850
g14
(g15
g16
NtRp5851
S'Wt\xdc\x05\xe5\xbe:\n\x96\x84yG'
p5852
bsVid
p5853
I82451
sVedutype
p5854
VB
sa(dp5855
Vroletype
p5856
V00
p5857
sV_id
p5858
g14
(g15
g16
NtRp5859
S'Wt\xdc\x05\xe5\xbe:\n\x96\x84yk'
p5860
bsVid
p5861
I82487
sVedutype
p5862
VC
sa(dp5863
Vroletype
p5864
V00
p5865
sV_id
p5866
g14
(g15
g16
NtRp5867
S'Wt\xdc\x05\xe5\xbe:\n\x96\x84y\x92'
p5868
bsVid
p5869
I82526
sVedutype
p5870
VC
sa(dp5871
Vroletype
p5872
V00
p5873
sV_id
p5874
g14
(g15
g16
NtRp5875
S'Wt\xdc\x05\xe5\xbe:\n\x96\x84y\xc6'
p5876
bsVid
p5877
I82578
sVedutype
p5878
VB
sa(dp5879
Vroletype
p5880
V00
p5881
sV_id
p5882
g14
(g15
g16
NtRp5883
S'Wt\xdc\x05\xe5\xbe:\n\x96\x84y\xf5'
p5884
bsVid
p5885
I82625
sVedutype
p5886
VB
sag69
a(dp5887
Vroletype
p5888
V00
p5889
sV_id
p5890
g14
(g15
g16
NtRp5891
S'Wt\xdc\x06\xe5\xbe:\n\x96\x84|K'
p5892
bsVid
p5893
I83225
sVedutype
p5894
VB
sa(dp5895
Vroletype
p5896
V04
p5897
sV_id
p5898
g14
(g15
g16
NtRp5899
S'Wt\xdc\x06\xe5\xbe:\n\x96\x84|\xff'
p5900
bsVid
p5901
I83405
sVedutype
p5902
VF
sa(dp5903
Vroletype
p5904
V03
p5905
sV_id
p5906
g14
(g15
g16
NtRp5907
S'Wt\xdc\x06\xe5\xbe:\n\x96\x84}\x84'
p5908
bsVid
p5909
I83538
sVedutype
p5910
VC
sa(dp5911
Vroletype
p5912
V00
p5913
sV_id
p5914
g14
(g15
g16
NtRp5915
S'Wt\xdc\x06\xe5\xbe:\n\x96\x84\x81\xa4'
p5916
bsVid
p5917
I84594
sVedutype
p5918
VB
sa(dp5919
Vroletype
p5920
V00
p5921
sV_id
p5922
g14
(g15
g16
NtRp5923
S'Wt\xdc\x06\xe5\xbe:\n\x96\x84\x81\xae'
p5924
bsVid
p5925
I84604
sVedutype
p5926
VB
sa(dp5927
Vroletype
p5928
V00
p5929
sV_id
p5930
g14
(g15
g16
NtRp5931
S'Wt\xdc\x06\xe5\xbe:\n\x96\x84\x81\xb2'
p5932
bsVid
p5933
I84608
sVedutype
p5934
VB
sag3075
a(dp5935
Vroletype
p5936
V00
p5937
sV_id
p5938
g14
(g15
g16
NtRp5939
S'Wt\xdc\x06\xe5\xbe:\n\x96\x84\x83\xc9'
p5940
bsVid
p5941
I85143
sVedutype
p5942
VC
sa(dp5943
Vroletype
p5944
V00
p5945
sV_id
p5946
g14
(g15
g16
NtRp5947
S'Wt\xdc\x06\xe5\xbe:\n\x96\x84\x83\xe9'
p5948
bsVid
p5949
I85175
sVedutype
p5950
VD
sa(dp5951
Vroletype
p5952
V03
p5953
sV_id
p5954
g14
(g15
g16
NtRp5955
S'Wt\xdc\x06\xe5\xbe:\n\x96\x84\x84\x80'
p5956
bsVid
p5957
I85326
sVedutype
p5958
VB
sa(dp5959
Vroletype
p5960
V00
p5961
sV_id
p5962
g14
(g15
g16
NtRp5963
S'Wt\xdc\x07\xe5\xbe:\n\x96\x84\x84\x94'
p5964
bsVid
p5965
I85346
sVedutype
p5966
VB
sa(dp5967
Vroletype
p5968
V00
p5969
sV_id
p5970
g14
(g15
g16
NtRp5971
S'Wt\xdc\x07\xe5\xbe:\n\x96\x84\x85,'
p5972
bsVid
p5973
I85498
sVedutype
p5974
VB
sag2673
ag325
ag3749
a(dp5975
Vroletype
p5976
V03
p5977
sV_id
p5978
g14
(g15
g16
NtRp5979
S'Wt\xdc\x07\xe5\xbe:\n\x96\x84\x86\xfb'
p5980
bsVid
p5981
I85962
sVedutype
p5982
VC
sag117
a(dp5983
Vroletype
p5984
V00
p5985
sV_id
p5986
g14
(g15
g16
NtRp5987
S'Wt\xdc\x07\xe5\xbe:\n\x96\x84\x87z'
p5988
bsVid
p5989
I86089
sVedutype
p5990
VB
sag341
ag3773
a(dp5991
Vroletype
p5992
V00
p5993
sV_id
p5994
g14
(g15
g16
NtRp5995
S'Wt\xdc\x08\xe5\xbe:\n\x96\x84\x8ch'
p5996
bsVid
p5997
I87351
sVedutype
p5998
VB
sag423
a(dp5999
Vroletype
p6000
V
sV_id
p6001
g14
(g15
g16
NtRp6002
S'Wt\xdc\x08\xe5\xbe:\n\x96\x84\x8f1'
p6003
bsVid
p6004
I88064
sVedutype
p6005
VC
sa(dp6006
Vroletype
p6007
V00
p6008
sV_id
p6009
g14
(g15
g16
NtRp6010
S'Wt\xdc\t\xe5\xbe:\n\x96\x84\x96\xf0'
p6011
bsVid
p6012
I90047
sVedutype
p6013
VC
sa(dp6014
Vroletype
p6015
V00
p6016
sV_id
p6017
g14
(g15
g16
NtRp6018
S'Wt\xdc\t\xe5\xbe:\n\x96\x84\x97\x87'
p6019
bsVid
p6020
I90198
sVedutype
p6021
VB
sa(dp6022
Vroletype
p6023
V00
p6024
sV_id
p6025
g14
(g15
g16
NtRp6026
S'Wt\xdc\t\xe5\xbe:\n\x96\x84\x97\x9a'
p6027
bsVid
p6028
I90217
sVedutype
p6029
VC
sa(dp6030
Vroletype
p6031
V00
p6032
sV_id
p6033
g14
(g15
g16
NtRp6034
S'Wt\xdc\n\xe5\xbe:\n\x96\x84\x9c\xde'
p6035
bsVid
p6036
I91565
sVedutype
p6037
VB
sag365
asg253
g254
((dp6038
VC
I13
sVB
I102
sg256
I1524
sVD
I3
sVF
I2
sVH
I1
sVZ
I3
stRp6039
sa(dp6040
g3
I11824254
sg4
I1484
sg5
V1685532
p6041
sg7
VB
sg8
(lp6042
I-1
ag10
ag5295
a(dp6043
Vroletype
p6044
V12
p6045
sV_id
p6046
g14
(g15
g16
NtRp6047
S'Wt\xdb\xf8\xe5\xbe:\n\x96\x84\x0f\xc6'
p6048
bsVid
p6049
I55359
sVedutype
p6050
VB
sa(dp6051
Vroletype
p6052
V00
p6053
sV_id
p6054
g14
(g15
g16
NtRp6055
S'Wt\xdb\xfa\xe5\xbe:\n\x96\x84\x1b\xf0'
p6056
bsVid
p6057
I58493
sVedutype
p6058
VB
sa(dp6059
Vroletype
p6060
V00
p6061
sV_id
p6062
g14
(g15
g16
NtRp6063
S'Wt\xdb\xfa\xe5\xbe:\n\x96\x84\x1ct'
p6064
bsVid
p6065
I58626
sVedutype
p6066
VB
sa(dp6067
Vroletype
p6068
V00
p6069
sV_id
p6070
g14
(g15
g16
NtRp6071
S'Wt\xdc\x02\xe5\xbe:\n\x96\x84W9'
p6072
bsVid
p6073
I73728
sVedutype
p6074
VB
sag1336
ag4250
ag979
a(dp6075
Vroletype
p6076
V00
p6077
sV_id
p6078
g14
(g15
g16
NtRp6079
S'Wt\xdc\x02\xe5\xbe:\n\x96\x84YX'
p6080
bsVid
p6081
I74272
sVedutype
p6082
VC
sag5375
a(dp6083
Vroletype
p6084
V00
p6085
sV_id
p6086
g14
(g15
g16
NtRp6087
S'Wt\xdc\x02\xe5\xbe:\n\x96\x84Yt'
p6088
bsVid
p6089
I74300
sVedutype
p6090
VB
sa(dp6091
Vroletype
p6092
V00
p6093
sV_id
p6094
g14
(g15
g16
NtRp6095
S'Wt\xdc\x02\xe5\xbe:\n\x96\x84Y\x8f'
p6096
bsVid
p6097
I74327
sVedutype
p6098
VB
sa(dp6099
Vroletype
p6100
V00
p6101
sV_id
p6102
g14
(g15
g16
NtRp6103
S'Wt\xdc\x02\xe5\xbe:\n\x96\x84Y\xa5'
p6104
bsVid
p6105
I74349
sVedutype
p6106
VB
sag2172
a(dp6107
Vroletype
p6108
V00
p6109
sV_id
p6110
g14
(g15
g16
NtRp6111
S'Wt\xdc\x02\xe5\xbe:\n\x96\x84Y\xc1'
p6112
bsVid
p6113
I74377
sVedutype
p6114
VB
sa(dp6115
Vroletype
p6116
V00
p6117
sV_id
p6118
g14
(g15
g16
NtRp6119
S'Wt\xdc\x02\xe5\xbe:\n\x96\x84Y\xea'
p6120
bsVid
p6121
I74418
sVedutype
p6122
VB
sag4290
a(dp6123
Vroletype
p6124
V00
p6125
sV_id
p6126
g14
(g15
g16
NtRp6127
S'Wt\xdc\x02\xe5\xbe:\n\x96\x84Z\xbe'
p6128
bsVid
p6129
I74631
sVedutype
p6130
VB
sa(dp6131
Vroletype
p6132
V00
p6133
sV_id
p6134
g14
(g15
g16
NtRp6135
S'Wt\xdc\x02\xe5\xbe:\n\x96\x84Z\xfe'
p6136
bsVid
p6137
I74696
sVedutype
p6138
VB
sa(dp6139
Vroletype
p6140
V00
p6141
sV_id
p6142
g14
(g15
g16
NtRp6143
S'Wt\xdc\x02\xe5\xbe:\n\x96\x84[B'
p6144
bsVid
p6145
I74764
sVedutype
p6146
VB
sa(dp6147
Vroletype
p6148
V00
p6149
sV_id
p6150
g14
(g15
g16
NtRp6151
S'Wt\xdc\x02\xe5\xbe:\n\x96\x84[V'
p6152
bsVid
p6153
I74784
sVedutype
p6154
VB
sa(dp6155
Vroletype
p6156
V00
p6157
sV_id
p6158
g14
(g15
g16
NtRp6159
S'Wt\xdc\x02\xe5\xbe:\n\x96\x84[y'
p6160
bsVid
p6161
I74819
sVedutype
p6162
VB
sa(dp6163
Vroletype
p6164
V00
p6165
sV_id
p6166
g14
(g15
g16
NtRp6167
S'Wt\xdc\x02\xe5\xbe:\n\x96\x84[\x8b'
p6168
bsVid
p6169
I74837
sVedutype
p6170
VB
sa(dp6171
Vroletype
p6172
V00
p6173
sV_id
p6174
g14
(g15
g16
NtRp6175
S'Wt\xdc\x02\xe5\xbe:\n\x96\x84[\x9d'
p6176
bsVid
p6177
I74855
sVedutype
p6178
VB
sag3248
a(dp6179
Vroletype
p6180
V00
p6181
sV_id
p6182
g14
(g15
g16
NtRp6183
S'Wt\xdc\x02\xe5\xbe:\n\x96\x84\\C'
p6184
bsVid
p6185
I75021
sVedutype
p6186
VB
sa(dp6187
Vroletype
p6188
V00
p6189
sV_id
p6190
g14
(g15
g16
NtRp6191
S'Wt\xdc\x04\xe5\xbe:\n\x96\x84p\xaf'
p6192
bsVid
p6193
I80250
sVedutype
p6194
VB
sag2292
a(dp6195
Vroletype
p6196
V00
p6197
sV_id
p6198
g14
(g15
g16
NtRp6199
S'Wt\xdc\x04\xe5\xbe:\n\x96\x84qM'
p6200
bsVid
p6201
I80408
sVedutype
p6202
VB
sa(dp6203
Vroletype
p6204
V00
p6205
sV_id
p6206
g14
(g15
g16
NtRp6207
S'Wt\xdc\x04\xe5\xbe:\n\x96\x84q\xea'
p6208
bsVid
p6209
I80565
sVedutype
p6210
VB
sag3288
a(dp6211
Vroletype
p6212
V00
p6213
sV_id
p6214
g14
(g15
g16
NtRp6215
S'Wt\xdc\x05\xe5\xbe:\n\x96\x84r\xaa'
p6216
bsVid
p6217
I80757
sVedutype
p6218
VB
sa(dp6219
Vroletype
p6220
V00
p6221
sV_id
p6222
g14
(g15
g16
NtRp6223
S'Wt\xdc\x05\xe5\xbe:\n\x96\x84r\xb0'
p6224
bsVid
p6225
I80763
sVedutype
p6226
VB
sa(dp6227
Vroletype
p6228
V00
p6229
sV_id
p6230
g14
(g15
g16
NtRp6231
S'Wt\xdc\x05\xe5\xbe:\n\x96\x84r\xb5'
p6232
bsVid
p6233
I80768
sVedutype
p6234
VB
sa(dp6235
Vroletype
p6236
V00
p6237
sV_id
p6238
g14
(g15
g16
NtRp6239
S'Wt\xdc\x05\xe5\xbe:\n\x96\x84r\xc5'
p6240
bsVid
p6241
I80784
sVedutype
p6242
VB
sag285
a(dp6243
Vroletype
p6244
V12
p6245
sV_id
p6246
g14
(g15
g16
NtRp6247
S'Wt\xdc\x05\xe5\xbe:\n\x96\x84t:'
p6248
bsVid
p6249
I81158
sVedutype
p6250
VH
sa(dp6251
Vroletype
p6252
V00
p6253
sV_id
p6254
g14
(g15
g16
NtRp6255
S'Wt\xdc\x05\xe5\xbe:\n\x96\x84t\x94'
p6256
bsVid
p6257
I81248
sVedutype
p6258
VB
sa(dp6259
Vroletype
p6260
V00
p6261
sV_id
p6262
g14
(g15
g16
NtRp6263
S'Wt\xdc\x05\xe5\xbe:\n\x96\x84t\xae'
p6264
bsVid
p6265
I81274
sVedutype
p6266
VB
sa(dp6267
Vroletype
p6268
V00
p6269
sV_id
p6270
g14
(g15
g16
NtRp6271
S'Wt\xdc\x05\xe5\xbe:\n\x96\x84t\xc4'
p6272
bsVid
p6273
I81296
sVedutype
p6274
VB
sa(dp6275
Vroletype
p6276
V00
p6277
sV_id
p6278
g14
(g15
g16
NtRp6279
S'Wt\xdc\x05\xe5\xbe:\n\x96\x84u#'
p6280
bsVid
p6281
I81391
sVedutype
p6282
VB
sa(dp6283
Vroletype
p6284
V00
p6285
sV_id
p6286
g14
(g15
g16
NtRp6287
S'Wt\xdc\x05\xe5\xbe:\n\x96\x84uC'
p6288
bsVid
p6289
I81423
sVedutype
p6290
VB
sa(dp6291
Vroletype
p6292
V00
p6293
sV_id
p6294
g14
(g15
g16
NtRp6295
S'Wt\xdc\x05\xe5\xbe:\n\x96\x84v$'
p6296
bsVid
p6297
I81648
sVedutype
p6298
VB
sa(dp6299
Vroletype
p6300
V00
p6301
sV_id
p6302
g14
(g15
g16
NtRp6303
S'Wt\xdc\x05\xe5\xbe:\n\x96\x84vZ'
p6304
bsVid
p6305
I81702
sVedutype
p6306
VB
sa(dp6307
Vroletype
p6308
V00
p6309
sV_id
p6310
g14
(g15
g16
NtRp6311
S'Wt\xdc\x05\xe5\xbe:\n\x96\x84wK'
p6312
bsVid
p6313
I81943
sVedutype
p6314
VB
sa(dp6315
Vroletype
p6316
V00
p6317
sV_id
p6318
g14
(g15
g16
NtRp6319
S'Wt\xdc\x05\xe5\xbe:\n\x96\x84w\xa7'
p6320
bsVid
p6321
I82035
sVedutype
p6322
VB
sa(dp6323
Vroletype
p6324
V00
p6325
sV_id
p6326
g14
(g15
g16
NtRp6327
S'Wt\xdc\x05\xe5\xbe:\n\x96\x84w\xfa'
p6328
bsVid
p6329
I82118
sVedutype
p6330
VB
sag3408
a(dp6331
Vroletype
p6332
V00
p6333
sV_id
p6334
g14
(g15
g16
NtRp6335
S'Wt\xdc\x05\xe5\xbe:\n\x96\x84y\xa8'
p6336
bsVid
p6337
I82548
sVedutype
p6338
VB
sa(dp6339
Vroletype
p6340
V00
p6341
sV_id
p6342
g14
(g15
g16
NtRp6343
S'Wt\xdc\x05\xe5\xbe:\n\x96\x84z\xf2'
p6344
bsVid
p6345
I82878
sVedutype
p6346
VB
sa(dp6347
Vroletype
p6348
V00
p6349
sV_id
p6350
g14
(g15
g16
NtRp6351
S'Wt\xdc\x05\xe5\xbe:\n\x96\x84z\xfc'
p6352
bsVid
p6353
I82888
sVedutype
p6354
VD
sa(dp6355
Vroletype
p6356
V00
p6357
sV_id
p6358
g14
(g15
g16
NtRp6359
S'Wt\xdc\x05\xe5\xbe:\n\x96\x84{:'
p6360
bsVid
p6361
I82950
sVedutype
p6362
VB
sa(dp6363
Vroletype
p6364
V00
p6365
sV_id
p6366
g14
(g15
g16
NtRp6367
S'Wt\xdc\x05\xe5\xbe:\n\x96\x84{|'
p6368
bsVid
p6369
I83016
sVedutype
p6370
VB
sag69
a(dp6371
Vroletype
p6372
V00
p6373
sV_id
p6374
g14
(g15
g16
NtRp6375
S'Wt\xdc\x06\xe5\xbe:\n\x96\x84{\xdd'
p6376
bsVid
p6377
I83115
sVedutype
p6378
VB
sa(dp6379
Vroletype
p6380
V00
p6381
sV_id
p6382
g14
(g15
g16
NtRp6383
S'Wt\xdc\x06\xe5\xbe:\n\x96\x84{\xe3'
p6384
bsVid
p6385
I83121
sVedutype
p6386
VE
sa(dp6387
Vroletype
p6388
V00
p6389
sV_id
p6390
g14
(g15
g16
NtRp6391
S'Wt\xdc\x06\xe5\xbe:\n\x96\x84|S'
p6392
bsVid
p6393
I83233
sVedutype
p6394
VB
sa(dp6395
Vroletype
p6396
V00
p6397
sV_id
p6398
g14
(g15
g16
NtRp6399
S'Wt\xdc\x06\xe5\xbe:\n\x96\x84|w'
p6400
bsVid
p6401
I83269
sVedutype
p6402
VB
sa(dp6403
Vroletype
p6404
V00
p6405
sV_id
p6406
g14
(g15
g16
NtRp6407
S'Wt\xdc\x06\xe5\xbe:\n\x96\x84|\xc0'
p6408
bsVid
p6409
I83342
sVedutype
p6410
VB
sa(dp6411
Vroletype
p6412
V00
p6413
sV_id
p6414
g14
(g15
g16
NtRp6415
S'Wt\xdc\x06\xe5\xbe:\n\x96\x84|\xdc'
p6416
bsVid
p6417
I83370
sVedutype
p6418
VB
sa(dp6419
Vroletype
p6420
V00
p6421
sV_id
p6422
g14
(g15
g16
NtRp6423
S'Wt\xdc\x06\xe5\xbe:\n\x96\x84}\x05'
p6424
bsVid
p6425
I83411
sVedutype
p6426
VC
sa(dp6427
Vroletype
p6428
V00
p6429
sV_id
p6430
g14
(g15
g16
NtRp6431
S'Wt\xdc\x06\xe5\xbe:\n\x96\x84}U'
p6432
bsVid
p6433
I83491
sVedutype
p6434
VB
sa(dp6435
Vroletype
p6436
V00
p6437
sV_id
p6438
g14
(g15
g16
NtRp6439
S'Wt\xdc\x06\xe5\xbe:\n\x96\x84}\xbc'
p6440
bsVid
p6441
I83594
sVedutype
p6442
VB
sa(dp6443
Vroletype
p6444
V00
p6445
sV_id
p6446
g14
(g15
g16
NtRp6447
S'Wt\xdc\x06\xe5\xbe:\n\x96\x84~\x87'
p6448
bsVid
p6449
I83797
sVedutype
p6450
VC
sa(dp6451
Vroletype
p6452
V00
p6453
sV_id
p6454
g14
(g15
g16
NtRp6455
S'Wt\xdc\x06\xe5\xbe:\n\x96\x84\x7fM'
p6456
bsVid
p6457
I83995
sVedutype
p6458
VB
sa(dp6459
Vroletype
p6460
V00
p6461
sV_id
p6462
g14
(g15
g16
NtRp6463
S'Wt\xdc\x06\xe5\xbe:\n\x96\x84\x7fw'
p6464
bsVid
p6465
I84037
sVedutype
p6466
VB
sa(dp6467
Vroletype
p6468
V00
p6469
sV_id
p6470
g14
(g15
g16
NtRp6471
S'Wt\xdc\x06\xe5\xbe:\n\x96\x84\x7f\xa9'
p6472
bsVid
p6473
I84087
sVedutype
p6474
VB
sa(dp6475
Vroletype
p6476
V00
p6477
sV_id
p6478
g14
(g15
g16
NtRp6479
S'Wt\xdc\x06\xe5\xbe:\n\x96\x84\x80~'
p6480
bsVid
p6481
I84300
sVedutype
p6482
VF
sa(dp6483
Vroletype
p6484
V00
p6485
sV_id
p6486
g14
(g15
g16
NtRp6487
S'Wt\xdc\x06\xe5\xbe:\n\x96\x84\x80\xfe'
p6488
bsVid
p6489
I84428
sVedutype
p6490
VD
sa(dp6491
Vroletype
p6492
V00
p6493
sV_id
p6494
g14
(g15
g16
NtRp6495
S'Wt\xdc\x06\xe5\xbe:\n\x96\x84\x816'
p6496
bsVid
p6497
I84484
sVedutype
p6498
VB
sa(dp6499
Vroletype
p6500
V00
p6501
sV_id
p6502
g14
(g15
g16
NtRp6503
S'Wt\xdc\x06\xe5\xbe:\n\x96\x84\x81\x83'
p6504
bsVid
p6505
I84561
sVedutype
p6506
VB
sa(dp6507
Vroletype
p6508
V00
p6509
sV_id
p6510
g14
(g15
g16
NtRp6511
S'Wt\xdc\x06\xe5\xbe:\n\x96\x84\x81\x91'
p6512
bsVid
p6513
I84575
sVedutype
p6514
VB
sa(dp6515
Vroletype
p6516
V00
p6517
sV_id
p6518
g14
(g15
g16
NtRp6519
S'Wt\xdc\x06\xe5\xbe:\n\x96\x84\x81\x92'
p6520
bsVid
p6521
I84576
sVedutype
p6522
VB
sa(dp6523
Vroletype
p6524
V00
p6525
sV_id
p6526
g14
(g15
g16
NtRp6527
S'Wt\xdc\x06\xe5\xbe:\n\x96\x84\x81\x97'
p6528
bsVid
p6529
I84581
sVedutype
p6530
VB
sa(dp6531
Vroletype
p6532
V00
p6533
sV_id
p6534
g14
(g15
g16
NtRp6535
S'Wt\xdc\x06\xe5\xbe:\n\x96\x84\x81\xbc'
p6536
bsVid
p6537
I84618
sVedutype
p6538
VB
sa(dp6539
Vroletype
p6540
V00
p6541
sV_id
p6542
g14
(g15
g16
NtRp6543
S'Wt\xdc\x06\xe5\xbe:\n\x96\x84\x81\xbd'
p6544
bsVid
p6545
I84619
sVedutype
p6546
VB
sa(dp6547
Vroletype
p6548
V00
p6549
sV_id
p6550
g14
(g15
g16
NtRp6551
S'Wt\xdc\x06\xe5\xbe:\n\x96\x84\x81\xda'
p6552
bsVid
p6553
I84648
sVedutype
p6554
VB
sa(dp6555
Vroletype
p6556
V00
p6557
sV_id
p6558
g14
(g15
g16
NtRp6559
S'Wt\xdc\x06\xe5\xbe:\n\x96\x84\x81\xfe'
p6560
bsVid
p6561
I84684
sVedutype
p6562
VB
sa(dp6563
Vroletype
p6564
V00
p6565
sV_id
p6566
g14
(g15
g16
NtRp6567
S'Wt\xdc\x06\xe5\xbe:\n\x96\x84\x82#'
p6568
bsVid
p6569
I84721
sVedutype
p6570
VB
sag3075
a(dp6571
Vroletype
p6572
V00
p6573
sV_id
p6574
g14
(g15
g16
NtRp6575
S'Wt\xdc\x06\xe5\xbe:\n\x96\x84\x82,'
p6576
bsVid
p6577
I84730
sVedutype
p6578
VB
sa(dp6579
Vroletype
p6580
V00
p6581
sV_id
p6582
g14
(g15
g16
NtRp6583
S'Wt\xdc\x06\xe5\xbe:\n\x96\x84\x82U'
p6584
bsVid
p6585
I84771
sVedutype
p6586
VB
sa(dp6587
Vroletype
p6588
V00
p6589
sV_id
p6590
g14
(g15
g16
NtRp6591
S'Wt\xdc\x06\xe5\xbe:\n\x96\x84\x82\x88'
p6592
bsVid
p6593
I84822
sVedutype
p6594
VB
sa(dp6595
Vroletype
p6596
V00
p6597
sV_id
p6598
g14
(g15
g16
NtRp6599
S'Wt\xdc\x06\xe5\xbe:\n\x96\x84\x83\x06'
p6600
bsVid
p6601
I84948
sVedutype
p6602
VB
sa(dp6603
Vroletype
p6604
V00
p6605
sV_id
p6606
g14
(g15
g16
NtRp6607
S'Wt\xdc\x06\xe5\xbe:\n\x96\x84\x83o'
p6608
bsVid
p6609
I85053
sVedutype
p6610
VB
sag3083
ag5959
a(dp6611
Vroletype
p6612
V00
p6613
sV_id
p6614
g14
(g15
g16
NtRp6615
S'Wt\xdc\x07\xe5\xbe:\n\x96\x84\x85\xe7'
p6616
bsVid
p6617
I85686
sVedutype
p6618
VB
sag3749
a(dp6619
Vroletype
p6620
V00
p6621
sV_id
p6622
g14
(g15
g16
NtRp6623
S'Wt\xdc\x07\xe5\xbe:\n\x96\x84\x86\xe0'
p6624
bsVid
p6625
I85935
sVedutype
p6626
VB
sa(dp6627
Vroletype
p6628
V00
p6629
sV_id
p6630
g14
(g15
g16
NtRp6631
S'Wt\xdc\x07\xe5\xbe:\n\x96\x84\x87K'
p6632
bsVid
p6633
I86042
sVedutype
p6634
VB
sa(dp6635
Vroletype
p6636
V00
p6637
sV_id
p6638
g14
(g15
g16
NtRp6639
S'Wt\xdc\x07\xe5\xbe:\n\x96\x84\x87\xe4'
p6640
bsVid
p6641
I86195
sVedutype
p6642
VB
sa(dp6643
Vroletype
p6644
V00
p6645
sV_id
p6646
g14
(g15
g16
NtRp6647
S'Wt\xdc\x07\xe5\xbe:\n\x96\x84\x88\xbf'
p6648
bsVid
p6649
I86414
sVedutype
p6650
VB
sag3773
ag500
a(dp6651
Vroletype
p6652
V00
p6653
sV_id
p6654
g14
(g15
g16
NtRp6655
S'Wt\xdc\x07\xe5\xbe:\n\x96\x84\x89m'
p6656
bsVid
p6657
I86588
sVedutype
p6658
VB
sa(dp6659
Vroletype
p6660
V00
p6661
sV_id
p6662
g14
(g15
g16
NtRp6663
S'Wt\xdc\x08\xe5\xbe:\n\x96\x84\x8c\x10'
p6664
bsVid
p6665
I87263
sVedutype
p6666
VB
sa(dp6667
Vroletype
p6668
V00
p6669
sV_id
p6670
g14
(g15
g16
NtRp6671
S'Wt\xdc\x08\xe5\xbe:\n\x96\x84\x8eU'
p6672
bsVid
p6673
I87844
sVedutype
p6674
VB
sa(dp6675
Vroletype
p6676
V00
p6677
sV_id
p6678
g14
(g15
g16
NtRp6679
S'Wt\xdc\x08\xe5\xbe:\n\x96\x84\x8e\xde'
p6680
bsVid
p6681
I87981
sVedutype
p6682
VB
sa(dp6683
Vroletype
p6684
V00
p6685
sV_id
p6686
g14
(g15
g16
NtRp6687
S'Wt\xdc\x08\xe5\xbe:\n\x96\x84\x8f]'
p6688
bsVid
p6689
I88108
sVedutype
p6690
VB
sa(dp6691
Vroletype
p6692
V00
p6693
sV_id
p6694
g14
(g15
g16
NtRp6695
S'Wt\xdc\x08\xe5\xbe:\n\x96\x84\x8ff'
p6696
bsVid
p6697
I88117
sVedutype
p6698
VB
sa(dp6699
Vroletype
p6700
V00
p6701
sV_id
p6702
g14
(g15
g16
NtRp6703
S'Wt\xdc\x08\xe5\xbe:\n\x96\x84\x8f{'
p6704
bsVid
p6705
I88138
sVedutype
p6706
VB
sa(dp6707
Vroletype
p6708
V00
p6709
sV_id
p6710
g14
(g15
g16
NtRp6711
S'Wt\xdc\x08\xe5\xbe:\n\x96\x84\x90a'
p6712
bsVid
p6713
I88368
sVedutype
p6714
VB
sa(dp6715
Vroletype
p6716
V00
p6717
sV_id
p6718
g14
(g15
g16
NtRp6719
S'Wt\xdc\x08\xe5\xbe:\n\x96\x84\x91)'
p6720
bsVid
p6721
I88568
sVedutype
p6722
VB
sa(dp6723
Vroletype
p6724
V01
p6725
sV_id
p6726
g14
(g15
g16
NtRp6727
S'Wt\xdc\x08\xe5\xbe:\n\x96\x84\x91.'
p6728
bsVid
p6729
I88573
sVedutype
p6730
VB
sag2777
a(dp6731
Vroletype
p6732
V00
p6733
sV_id
p6734
g14
(g15
g16
NtRp6735
S'Wt\xdc\x08\xe5\xbe:\n\x96\x84\x91F'
p6736
bsVid
p6737
I88597
sVedutype
p6738
VB
sa(dp6739
Vroletype
p6740
V00
p6741
sV_id
p6742
g14
(g15
g16
NtRp6743
S'Wt\xdc\x08\xe5\xbe:\n\x96\x84\x91l'
p6744
bsVid
p6745
I88635
sVedutype
p6746
VB
sa(dp6747
Vroletype
p6748
V00
p6749
sV_id
p6750
g14
(g15
g16
NtRp6751
S'Wt\xdc\x08\xe5\xbe:\n\x96\x84\x91\x83'
p6752
bsVid
p6753
I88658
sVedutype
p6754
VB
sa(dp6755
Vroletype
p6756
V00
p6757
sV_id
p6758
g14
(g15
g16
NtRp6759
S'Wt\xdc\x08\xe5\xbe:\n\x96\x84\x92\n'
p6760
bsVid
p6761
I88793
sVedutype
p6762
VB
sa(dp6763
Vroletype
p6764
V00
p6765
sV_id
p6766
g14
(g15
g16
NtRp6767
S'Wt\xdc\x08\xe5\xbe:\n\x96\x84\x92\x1b'
p6768
bsVid
p6769
I88810
sVedutype
p6770
VB
sa(dp6771
Vroletype
p6772
V00
p6773
sV_id
p6774
g14
(g15
g16
NtRp6775
S'Wt\xdc\x08\xe5\xbe:\n\x96\x84\x92*'
p6776
bsVid
p6777
I88825
sVedutype
p6778
VB
sa(dp6779
Vroletype
p6780
V00
p6781
sV_id
p6782
g14
(g15
g16
NtRp6783
S'Wt\xdc\t\xe5\xbe:\n\x96\x84\x92\xcd'
p6784
bsVid
p6785
I88988
sVedutype
p6786
VB
sa(dp6787
Vroletype
p6788
V00
p6789
sV_id
p6790
g14
(g15
g16
NtRp6791
S'Wt\xdc\t\xe5\xbe:\n\x96\x84\x93\x0b'
p6792
bsVid
p6793
I89050
sVedutype
p6794
VB
sa(dp6795
Vroletype
p6796
V00
p6797
sV_id
p6798
g14
(g15
g16
NtRp6799
S'Wt\xdc\t\xe5\xbe:\n\x96\x84\x93\x1d'
p6800
bsVid
p6801
I89068
sVedutype
p6802
VB
sa(dp6803
Vroletype
p6804
V00
p6805
sV_id
p6806
g14
(g15
g16
NtRp6807
S'Wt\xdc\t\xe5\xbe:\n\x96\x84\x93\xac'
p6808
bsVid
p6809
I89211
sVedutype
p6810
VB
sa(dp6811
Vroletype
p6812
V00
p6813
sV_id
p6814
g14
(g15
g16
NtRp6815
S'Wt\xdc\t\xe5\xbe:\n\x96\x84\x93\xed'
p6816
bsVid
p6817
I89276
sVedutype
p6818
VB
sag189
a(dp6819
Vroletype
p6820
V00
p6821
sV_id
p6822
g14
(g15
g16
NtRp6823
S'Wt\xdc\t\xe5\xbe:\n\x96\x84\x95B'
p6824
bsVid
p6825
I89617
sVedutype
p6826
VB
sag4994
a(dp6827
Vroletype
p6828
V00
p6829
sV_id
p6830
g14
(g15
g16
NtRp6831
S'Wt\xdc\t\xe5\xbe:\n\x96\x84\x95\xa8'
p6832
bsVid
p6833
I89719
sVedutype
p6834
VB
sa(dp6835
Vroletype
p6836
V00
p6837
sV_id
p6838
g14
(g15
g16
NtRp6839
S'Wt\xdc\t\xe5\xbe:\n\x96\x84\x95\xb6'
p6840
bsVid
p6841
I89733
sVedutype
p6842
VB
sa(dp6843
Vroletype
p6844
V00
p6845
sV_id
p6846
g14
(g15
g16
NtRp6847
S'Wt\xdc\t\xe5\xbe:\n\x96\x84\x95\xcb'
p6848
bsVid
p6849
I89754
sVedutype
p6850
VB
sa(dp6851
Vroletype
p6852
V03
p6853
sV_id
p6854
g14
(g15
g16
NtRp6855
S'Wt\xdc\t\xe5\xbe:\n\x96\x84\x96|'
p6856
bsVid
p6857
I89931
sVedutype
p6858
VB
sa(dp6859
Vroletype
p6860
V00
p6861
sV_id
p6862
g14
(g15
g16
NtRp6863
S'Wt\xdc\t\xe5\xbe:\n\x96\x84\x97z'
p6864
bsVid
p6865
I90185
sVedutype
p6866
VB
sa(dp6867
Vroletype
p6868
V00
p6869
sV_id
p6870
g14
(g15
g16
NtRp6871
S'Wt\xdc\t\xe5\xbe:\n\x96\x84\x97\x83'
p6872
bsVid
p6873
I90194
sVedutype
p6874
VB
sag6014
ag6022
a(dp6875
Vroletype
p6876
V00
p6877
sV_id
p6878
g14
(g15
g16
NtRp6879
S'Wt\xdc\t\xe5\xbe:\n\x96\x84\x98\x7f'
p6880
bsVid
p6881
I90446
sVedutype
p6882
VB
sa(dp6883
Vroletype
p6884
V00
p6885
sV_id
p6886
g14
(g15
g16
NtRp6887
S'Wt\xdc\t\xe5\xbe:\n\x96\x84\x98\xf2'
p6888
bsVid
p6889
I90561
sVedutype
p6890
VB
sa(dp6891
Vroletype
p6892
V00
p6893
sV_id
p6894
g14
(g15
g16
NtRp6895
S'Wt\xdc\t\xe5\xbe:\n\x96\x84\x98\xf7'
p6896
bsVid
p6897
I90566
sVedutype
p6898
VB
sa(dp6899
Vroletype
p6900
V00
p6901
sV_id
p6902
g14
(g15
g16
NtRp6903
S'Wt\xdc\t\xe5\xbe:\n\x96\x84\x98\xfb'
p6904
bsVid
p6905
I90570
sVedutype
p6906
VB
sa(dp6907
Vroletype
p6908
V00
p6909
sV_id
p6910
g14
(g15
g16
NtRp6911
S'Wt\xdc\t\xe5\xbe:\n\x96\x84\x99y'
p6912
bsVid
p6913
I90696
sVedutype
p6914
VB
sa(dp6915
Vroletype
p6916
V00
p6917
sV_id
p6918
g14
(g15
g16
NtRp6919
S'Wt\xdc\t\xe5\xbe:\n\x96\x84\x9a\x07'
p6920
bsVid
p6921
I90838
sVedutype
p6922
VB
sag4165
a(dp6923
Vroletype
p6924
V00
p6925
sV_id
p6926
g14
(g15
g16
NtRp6927
S'Wt\xdc\t\xe5\xbe:\n\x96\x84\x9as'
p6928
bsVid
p6929
I90946
sVedutype
p6930
VB
sag894
ag245
asg253
g254
((dp6931
g256
I1216
sVC
I6
sVB
I127
sVE
I1
sVD
I3
sVF
I1
sVH
I1
stRp6932
sa.